
out/unzip.elf：     文件格式 elf32-littlemips

Disassembly of section .text:

81000100 <main>:
81000100:	27bdfff8 	addiu	sp,sp,-8
81000104:	3c048100 	lui	a0,0x8100
81000108:	3c058131 	lui	a1,0x8131
8100010c:	24842b20 	addiu	a0,a0,11040
81000110:	afb00000 	sw	s0,0(sp)
81000114:	24a548e2 	addiu	a1,a1,18658
81000118:	3c108000 	lui	s0,0x8000
8100011c:	3c078131 	lui	a3,0x8131
81000120:	36060180 	ori	a2,s0,0x180
81000124:	00a42823 	subu	a1,a1,a0
81000128:	24e748f4 	addiu	a3,a3,18676
8100012c:	afbf0004 	sw	ra,4(sp)
81000130:	0c400160 	jal	81000580 <LzmaDec>
81000134:	36100200 	ori	s0,s0,0x200
81000138:	0c4001a9 	jal	810006a4 <flush_cache>
8100013c:	00000000 	nop
81000140:	0200f809 	jalr	s0
81000144:	00000000 	nop
81000148:	8fbf0004 	lw	ra,4(sp)
8100014c:	8fb00000 	lw	s0,0(sp)
81000150:	00001021 	move	v0,zero
81000154:	03e00008 	jr	ra
81000158:	27bd0008 	addiu	sp,sp,8
8100015c:	00000000 	nop

81000160 <enable_cache_asm>:
81000160:	40088000 000000c0 31080007 24010003     ...@.......1...$
81000170:	1101004c 00000000 4080e000 4080e002     L..........@...@
81000180:	4080e800 4080e802 40088001 3c090038     ...@...@...@8..<
81000190:	01094824 00094cc2 11200017 00000000     $H...L.... .....
810001a0:	240a0002 012a5004 3c0901c0 01094824     ...$.P*....<$H..
810001b0:	00094d82 240b0040 012b5804 3c090007     .M..@..$.X+....<
810001c0:	01094824 00094c02 212c0001 3c0e8000     $H...L....,!...<
810001d0:	01607821 bdc80000 01ca7020 21efffff     !x`..... p.....!
810001e0:	15e0fffc 00000000 01607821 218cffff     ........!x`....!
810001f0:	1580fff8 00000000 4080e000 4080e002     ...........@...@
81000200:	4080e800 4080e802 40088001 24091c00     ...@...@...@...$
81000210:	01094824 00094a82 11200017 00000000     $H...J.... .....
81000220:	240a0002 012a5004 3409e000 01094824     ...$.P*....4$H..
81000230:	00094b42 240b0040 012b5804 24090380     BK..@..$.X+....$
81000240:	01094824 000949c2 212c0001 3c0e8000     $H...I....,!...<
81000250:	01607821 bdc90000 01ca7020 21efffff     !x`..... p.....!
81000260:	15e0fffc 00000000 01607821 218cffff     ........!x`....!
81000270:	1580fff8 00000000 40088000 2401fff8     ...........@...$
81000280:	01014024 24080003 40888000 0000000f     $@.....$...@....
81000290:	000000c0 00000000 00000000 00000000     ................
810002a0:	00000000 24090001 14090025 00000000     .......$%.......
	...
81000340:	03e00008 00000000                       ........

81000348 <flush_cache_asm>:
81000348:	40088001 24091c00 01094824 00094a82     ...@...$$H...J..
81000358:	11200017 00000000 240a0002 012a5004     .. ........$.P*.
81000368:	3409e000 01094824 00094b42 240b0040     ...4$H..BK..@..$
81000378:	012b5804 24090380 01094824 000949c2     .X+....$$H...I..
81000388:	212c0001 3c0e8000 01607821 bdc10000     ..,!...<!x`.....
81000398:	01ca7020 21efffff 15e0fffc 00000000      p.....!........
810003a8:	01607821 218cffff 1580fff8 00000000     !x`....!........
810003b8:	4080e000 4080e002 4080e800 4080e802     ...@...@...@...@
810003c8:	40088001 3c090038 01094824 00094cc2     ...@8..<$H...L..
810003d8:	11200017 00000000 240a0002 012a5004     .. ........$.P*.
810003e8:	3c0901c0 01094824 00094d82 240b0040     ...<$H...M..@..$
810003f8:	012b5804 3c090007 01094824 00094c02     .X+....<$H...L..
81000408:	212c0001 3c0e8000 01607821 bdc80000     ..,!...<!x`.....
81000418:	01ca7020 21efffff 15e0fffc 00000000      p.....!........
81000428:	01607821 218cffff 1580fff8 00000000     !x`....!........
81000438:	0000000f 000000c0 00000000 00000000     ................
	...
81000450:	03e00008 00000000                       ........

81000458 <remap_dspram_asm>:
81000458:	3c101000 4090d000 3c108000 be050000     ...<...@...<....
81000468:	4011e002 3c108000 36100008 be050000     ...@...<...6....
81000478:	4011e002 2401ff00 02218824 3c101000     ...@...$$.!....<
81000488:	36106080 4090e002 3c109000 36106000     .`.6...@...<.`.6
81000498:	be090000 4080d000 02308825 03e00008     .......@%.0.....
	...

810004c0 <uart_putc>:
810004c0:	3c05bf20 	lui	a1,0xbf20
810004c4:	34a31328 	ori	v1,a1,0x1328
810004c8:	8c620000 	lw	v0,0(v1)
810004cc:	30420020 	andi	v0,v0,0x20
810004d0:	1040fffd 	beqz	v0,810004c8 <uart_putc+0x8>
810004d4:	34a21300 	ori	v0,a1,0x1300
810004d8:	3c03bf20 	lui	v1,0xbf20
810004dc:	ac440000 	sw	a0,0(v0)
810004e0:	34631328 	ori	v1,v1,0x1328
810004e4:	24040060 	li	a0,96
810004e8:	8c620000 	lw	v0,0(v1)
810004ec:	30420060 	andi	v0,v0,0x60
810004f0:	1444fffd 	bne	v0,a0,810004e8 <uart_putc+0x28>
810004f4:	00000000 	nop
810004f8:	03e00008 	jr	ra
810004fc:	00000000 	nop

81000500 <uart_puts>:
81000500:	27bdfff8 	addiu	sp,sp,-8
81000504:	afb00000 	sw	s0,0(sp)
81000508:	00808021 	move	s0,a0
8100050c:	08400147 	j	8100051c <uart_puts+0x1c>
81000510:	afbf0004 	sw	ra,4(sp)
81000514:	0c400130 	jal	810004c0 <uart_putc>
81000518:	26100001 	addiu	s0,s0,1
8100051c:	82040000 	lb	a0,0(s0)
81000520:	1480fffc 	bnez	a0,81000514 <uart_puts+0x14>
81000524:	8fbf0004 	lw	ra,4(sp)
81000528:	8fb00000 	lw	s0,0(sp)
8100052c:	03e00008 	jr	ra
81000530:	27bd0008 	addiu	sp,sp,8

81000534 <SzAlloc>:
81000534:	3c038131 	lui	v1,0x8131
81000538:	8c6248f0 	lw	v0,18672(v1)
8100053c:	00452821 	addu	a1,v0,a1
81000540:	03e00008 	jr	ra
81000544:	ac6548f0 	sw	a1,18672(v1)

81000548 <SzFree>:
81000548:	03e00008 	jr	ra
8100054c:	00000000 	nop

81000550 <memcpy>:
81000550:	00803821 	move	a3,a0
81000554:	10c00008 	beqz	a2,81000578 <memcpy+0x28>
81000558:	24c3ffff 	addiu	v1,a2,-1
8100055c:	2406ffff 	li	a2,-1
81000560:	90a20000 	lbu	v0,0(a1)
81000564:	2463ffff 	addiu	v1,v1,-1
81000568:	24a50001 	addiu	a1,a1,1
8100056c:	a0e20000 	sb	v0,0(a3)
81000570:	1466fffb 	bne	v1,a2,81000560 <memcpy+0x10>
81000574:	24e70001 	addiu	a3,a3,1
81000578:	03e00008 	jr	ra
8100057c:	00801021 	move	v0,a0

81000580 <LzmaDec>:
81000580:	27bdffc8 	addiu	sp,sp,-56
81000584:	3c038100 	lui	v1,0x8100
81000588:	afb3002c 	sw	s3,44(sp)
8100058c:	afb20028 	sw	s2,40(sp)
81000590:	afb00020 	sw	s0,32(sp)
81000594:	afbf0030 	sw	ra,48(sp)
81000598:	afb10024 	sw	s1,36(sp)
8100059c:	24622ab8 	addiu	v0,v1,10936
810005a0:	8c490004 	lw	t1,4(v0)
810005a4:	8c682ab8 	lw	t0,10936(v1)
810005a8:	24a5fff3 	addiu	a1,a1,-13
810005ac:	3c028131 	lui	v0,0x8131
810005b0:	afa9000c 	sw	t1,12(sp)
810005b4:	ac4748f0 	sw	a3,18672(v0)
810005b8:	afa50014 	sw	a1,20(sp)
810005bc:	afa80008 	sw	t0,8(sp)
810005c0:	00809021 	move	s2,a0
810005c4:	00c09821 	move	s3,a2
810005c8:	00008021 	move	s0,zero
810005cc:	00004821 	move	t1,zero
810005d0:	02492021 	addu	a0,s2,t1
810005d4:	90820005 	lbu	v0,5(a0)
810005d8:	000930c0 	sll	a2,t1,0x3
810005dc:	00001821 	move	v1,zero
810005e0:	25290001 	addiu	t1,t1,1
810005e4:	00064680 	sll	t0,a2,0x1a
810005e8:	05010004 	bgez	t0,810005fc <LzmaDec+0x7c>
810005ec:	00000000 	nop
810005f0:	00c22804 	sllv	a1,v0,a2
810005f4:	10000007 	b	81000614 <LzmaDec+0x94>
810005f8:	00002021 	move	a0,zero
810005fc:	11000004 	beqz	t0,81000610 <LzmaDec+0x90>
81000600:	00c32804 	sllv	a1,v1,a2
81000604:	00064023 	negu	t0,a2
81000608:	01024006 	srlv	t0,v0,t0
8100060c:	00a82825 	or	a1,a1,t0
81000610:	00c22004 	sllv	a0,v0,a2
81000614:	29270008 	slti	a3,t1,8
81000618:	14e0ffed 	bnez	a3,810005d0 <LzmaDec+0x50>
8100061c:	02048021 	addu	s0,s0,a0
81000620:	3c048100 	lui	a0,0x8100
81000624:	24842ac0 	addiu	a0,a0,10944
81000628:	0c400140 	jal	81000500 <uart_puts>
8100062c:	afb00010 	sw	s0,16(sp)
81000630:	27a20008 	addiu	v0,sp,8
81000634:	02602021 	move	a0,s3
81000638:	02404021 	move	t0,s2
8100063c:	27a50010 	addiu	a1,sp,16
81000640:	2646000d 	addiu	a2,s2,13
81000644:	27a70014 	addiu	a3,sp,20
81000648:	24090005 	li	t1,5
8100064c:	00005021 	move	t2,zero
81000650:	27ab0018 	addiu	t3,sp,24
81000654:	0c400a59 	jal	81002964 <LzmaDecode>
81000658:	afa20000 	sw	v0,0(sp)
8100065c:	1440000c 	bnez	v0,81000690 <LzmaDec+0x110>
81000660:	00000000 	nop
81000664:	3c048100 	lui	a0,0x8100
81000668:	0c400140 	jal	81000500 <uart_puts>
8100066c:	24842ad8 	addiu	a0,a0,10968
81000670:	02001021 	move	v0,s0
81000674:	8fbf0030 	lw	ra,48(sp)
81000678:	8fb3002c 	lw	s3,44(sp)
8100067c:	8fb20028 	lw	s2,40(sp)
81000680:	8fb10024 	lw	s1,36(sp)
81000684:	8fb00020 	lw	s0,32(sp)
81000688:	03e00008 	jr	ra
8100068c:	27bd0038 	addiu	sp,sp,56
81000690:	3c048100 	lui	a0,0x8100
81000694:	0c400140 	jal	81000500 <uart_puts>
81000698:	24842ae0 	addiu	a0,a0,10976
8100069c:	0840019d 	j	81000674 <LzmaDec+0xf4>
810006a0:	2402ffff 	li	v0,-1

810006a4 <flush_cache>:
810006a4:	27bdffd8 	addiu	sp,sp,-40
810006a8:	afbf0020 	sw	ra,32(sp)
810006ac:	afb7001c 	sw	s7,28(sp)
810006b0:	afb60018 	sw	s6,24(sp)
810006b4:	afb50014 	sw	s5,20(sp)
810006b8:	afb40010 	sw	s4,16(sp)
810006bc:	afb3000c 	sw	s3,12(sp)
810006c0:	afb20008 	sw	s2,8(sp)
810006c4:	afb10004 	sw	s1,4(sp)
810006c8:	afb00000 	sw	s0,0(sp)
810006cc:	0c4000d2 	jal	81000348 <flush_cache_asm>
810006d0:	00000000 	nop
810006d4:	00000000 	nop
810006d8:	8fbf0020 	lw	ra,32(sp)
810006dc:	8fb7001c 	lw	s7,28(sp)
810006e0:	8fb60018 	lw	s6,24(sp)
810006e4:	8fb50014 	lw	s5,20(sp)
810006e8:	8fb40010 	lw	s4,16(sp)
810006ec:	8fb3000c 	lw	s3,12(sp)
810006f0:	8fb20008 	lw	s2,8(sp)
810006f4:	8fb10004 	lw	s1,4(sp)
810006f8:	8fb00000 	lw	s0,0(sp)
810006fc:	03e00008 	jr	ra
81000700:	27bd0028 	addiu	sp,sp,40

81000704 <LzmaDec_WriteRem>:
81000704:	8c8b0048 	lw	t3,72(a0)
81000708:	2562ffff 	addiu	v0,t3,-1
8100070c:	2c420111 	sltiu	v0,v0,273
81000710:	10400021 	beqz	v0,81000798 <LzmaDec_WriteRem+0x94>
81000714:	00804821 	move	t1,a0
81000718:	8c860024 	lw	a2,36(a0)
8100071c:	8c840030 	lw	a0,48(a0)
81000720:	01603821 	move	a3,t3
81000724:	00a61823 	subu	v1,a1,a2
81000728:	006b102b 	sltu	v0,v1,t3
8100072c:	0062380b 	movn	a3,v1,v0
81000730:	8d280014 	lw	t0,20(t1)
81000734:	8d2c0028 	lw	t4,40(t1)
81000738:	10800019 	beqz	a0,810007a0 <LzmaDec_WriteRem+0x9c>
8100073c:	8d2a0038 	lw	t2,56(t1)
81000740:	8d23002c 	lw	v1,44(t1)
81000744:	00671021 	addu	v0,v1,a3
81000748:	ad22002c 	sw	v0,44(t1)
8100074c:	01671823 	subu	v1,t3,a3
81000750:	2402ffff 	li	v0,-1
81000754:	24e7ffff 	addiu	a3,a3,-1
81000758:	10e2000e 	beq	a3,v0,81000794 <LzmaDec_WriteRem+0x90>
8100075c:	ad230048 	sw	v1,72(t1)
81000760:	240bffff 	li	t3,-1
81000764:	00ca1023 	subu	v0,a2,t2
81000768:	00ca182b 	sltu	v1,a2,t2
8100076c:	004c2821 	addu	a1,v0,t4
81000770:	01062021 	addu	a0,t0,a2
81000774:	24e7ffff 	addiu	a3,a3,-1
81000778:	24c60001 	addiu	a2,a2,1
8100077c:	10600002 	beqz	v1,81000788 <LzmaDec_WriteRem+0x84>
81000780:	00481021 	addu	v0,v0,t0
81000784:	00a81021 	addu	v0,a1,t0
81000788:	90420000 	lbu	v0,0(v0)
8100078c:	14ebfff5 	bne	a3,t3,81000764 <LzmaDec_WriteRem+0x60>
81000790:	a0820000 	sb	v0,0(a0)
81000794:	ad260024 	sw	a2,36(t1)
81000798:	03e00008 	jr	ra
8100079c:	00000000 	nop
810007a0:	8d24000c 	lw	a0,12(t1)
810007a4:	8d23002c 	lw	v1,44(t1)
810007a8:	00831023 	subu	v0,a0,v1
810007ac:	00e2102b 	sltu	v0,a3,v0
810007b0:	1440ffe5 	bnez	v0,81000748 <LzmaDec_WriteRem+0x44>
810007b4:	00671021 	addu	v0,v1,a3
810007b8:	084001d2 	j	81000748 <LzmaDec_WriteRem+0x44>
810007bc:	ad240030 	sw	a0,48(t1)

810007c0 <LzmaDec_DecodeReal2>:
810007c0:	27bdffa0 	addiu	sp,sp,-96
810007c4:	afb60050 	sw	s6,80(sp)
810007c8:	afbf005c 	sw	ra,92(sp)
810007cc:	afbe0058 	sw	s8,88(sp)
810007d0:	afb70054 	sw	s7,84(sp)
810007d4:	afb5004c 	sw	s5,76(sp)
810007d8:	afb40048 	sw	s4,72(sp)
810007dc:	afb30044 	sw	s3,68(sp)
810007e0:	afb20040 	sw	s2,64(sp)
810007e4:	afb1003c 	sw	s1,60(sp)
810007e8:	afb00038 	sw	s0,56(sp)
810007ec:	8c870024 	lw	a3,36(a0)
810007f0:	8c880018 	lw	t0,24(a0)
810007f4:	0080b021 	move	s6,a0
810007f8:	afa50000 	sw	a1,0(sp)
810007fc:	afa60004 	sw	a2,4(sp)
81000800:	8ec20030 	lw	v0,48(s6)
81000804:	8fa30000 	lw	v1,0(sp)
81000808:	afa20030 	sw	v0,48(sp)
8100080c:	144002ff 	bnez	v0,8100140c <LzmaDec_DecodeReal2+0xc4c>
81000810:	afa30008 	sw	v1,8(sp)
81000814:	8ec3000c 	lw	v1,12(s6)
81000818:	8ec5002c 	lw	a1,44(s6)
8100081c:	8fa40000 	lw	a0,0(sp)
81000820:	00651823 	subu	v1,v1,a1
81000824:	00871023 	subu	v0,a0,a3
81000828:	0062102b 	sltu	v0,v1,v0
8100082c:	10400002 	beqz	v0,81000838 <LzmaDec_DecodeReal2+0x78>
81000830:	00e31821 	addu	v1,a3,v1
81000834:	afa30008 	sw	v1,8(sp)
81000838:	8ec40004 	lw	a0,4(s6)
8100083c:	8ec20008 	lw	v0,8(s6)
81000840:	24030001 	li	v1,1
81000844:	00a0f021 	move	s8,a1
81000848:	8ec50010 	lw	a1,16(s6)
8100084c:	00431004 	sllv	v0,v1,v0
81000850:	00831804 	sllv	v1,v1,a0
81000854:	2442ffff 	addiu	v0,v0,-1
81000858:	2463ffff 	addiu	v1,v1,-1
8100085c:	afa20020 	sw	v0,32(sp)
81000860:	afa30024 	sw	v1,36(sp)
81000864:	00e08821 	move	s1,a3
81000868:	afa5000c 	sw	a1,12(sp)
8100086c:	8ec60038 	lw	a2,56(s6)
81000870:	8ec7003c 	lw	a3,60(s6)
81000874:	8ec20040 	lw	v0,64(s6)
81000878:	8ec30044 	lw	v1,68(s6)
8100087c:	8ec40000 	lw	a0,0(s6)
81000880:	8ec50028 	lw	a1,40(s6)
81000884:	8ed40034 	lw	s4,52(s6)
81000888:	8ed70014 	lw	s7,20(s6)
8100088c:	8eca001c 	lw	t2,28(s6)
81000890:	8ecc0020 	lw	t4,32(s6)
81000894:	0100c021 	move	t8,t0
81000898:	afa60010 	sw	a2,16(sp)
8100089c:	afa70014 	sw	a3,20(sp)
810008a0:	afa20018 	sw	v0,24(sp)
810008a4:	afa3001c 	sw	v1,28(sp)
810008a8:	afa40028 	sw	a0,40(sp)
810008ac:	afa5002c 	sw	a1,44(sp)
810008b0:	00008021 	move	s0,zero
810008b4:	8fa60020 	lw	a2,32(sp)
810008b8:	00141100 	sll	v0,s4,0x4
810008bc:	8fa7000c 	lw	a3,12(sp)
810008c0:	03c64024 	and	t0,s8,a2
810008c4:	00481021 	addu	v0,v0,t0
810008c8:	00021040 	sll	v0,v0,0x1
810008cc:	0047c821 	addu	t9,v0,a3
810008d0:	3c0200ff 	lui	v0,0xff
810008d4:	3442ffff 	ori	v0,v0,0xffff
810008d8:	004a182b 	sltu	v1,v0,t2
810008dc:	14600006 	bnez	v1,810008f8 <LzmaDec_DecodeReal2+0x138>
810008e0:	97250000 	lhu	a1,0(t9)
810008e4:	93030000 	lbu	v1,0(t8)
810008e8:	000c1200 	sll	v0,t4,0x8
810008ec:	000a5200 	sll	t2,t2,0x8
810008f0:	00436025 	or	t4,v0,v1
810008f4:	27180001 	addiu	t8,t8,1
810008f8:	000a12c2 	srl	v0,t2,0xb
810008fc:	70453002 	mul	a2,v0,a1
81000900:	0186182b 	sltu	v1,t4,a2
81000904:	1060008e 	beqz	v1,81000b40 <LzmaDec_DecodeReal2+0x380>
81000908:	24030800 	li	v1,2048
8100090c:	00651023 	subu	v0,v1,a1
81000910:	00021142 	srl	v0,v0,0x5
81000914:	00451021 	addu	v0,v0,a1
81000918:	8fa4000c 	lw	a0,12(sp)
8100091c:	8fa50030 	lw	a1,48(sp)
81000920:	a7220000 	sh	v0,0(t9)
81000924:	00c05021 	move	t2,a2
81000928:	14a00003 	bnez	a1,81000938 <LzmaDec_DecodeReal2+0x178>
8100092c:	24990e6c 	addiu	t9,a0,3692
81000930:	13c00014 	beqz	s8,81000984 <LzmaDec_DecodeReal2+0x1c4>
81000934:	0237a821 	addu	s5,s1,s7
81000938:	8fa60024 	lw	a2,36(sp)
8100093c:	8fa70028 	lw	a3,40(sp)
81000940:	03c61024 	and	v0,s8,a2
81000944:	16200265 	bnez	s1,810012dc <LzmaDec_DecodeReal2+0xb1c>
81000948:	00e22004 	sllv	a0,v0,a3
8100094c:	8fa3002c 	lw	v1,44(sp)
81000950:	02e0a821 	move	s5,s7
81000954:	00771021 	addu	v0,v1,s7
81000958:	2442ffff 	addiu	v0,v0,-1
8100095c:	8fa50028 	lw	a1,40(sp)
81000960:	90420000 	lbu	v0,0(v0)
81000964:	24030008 	li	v1,8
81000968:	00651823 	subu	v1,v1,a1
8100096c:	00621007 	srav	v0,v0,v1
81000970:	00821021 	addu	v0,a0,v0
81000974:	00021840 	sll	v1,v0,0x1
81000978:	00621821 	addu	v1,v1,v0
8100097c:	00031a40 	sll	v1,v1,0x9
81000980:	0323c821 	addu	t9,t9,v1
81000984:	2e820007 	sltiu	v0,s4,7
81000988:	104001cf 	beqz	v0,810010c8 <LzmaDec_DecodeReal2+0x908>
8100098c:	8fa30010 	lw	v1,16(sp)
81000990:	3c068100 	lui	a2,0x8100
81000994:	24c62b00 	addiu	a2,a2,11008
81000998:	8ccd0000 	lw	t5,0(a2)
8100099c:	24090001 	li	t1,1
810009a0:	0840026e 	j	810009b8 <LzmaDec_DecodeReal2+0x1f8>
810009a4:	240b0800 	li	t3,2048
810009a8:	2d220100 	sltiu	v0,t1,256
810009ac:	00c05021 	move	t2,a2
810009b0:	1040001b 	beqz	v0,81000a20 <LzmaDec_DecodeReal2+0x260>
810009b4:	a4e80000 	sh	t0,0(a3)
810009b8:	00092040 	sll	a0,t1,0x1
810009bc:	00993821 	addu	a3,a0,t9
810009c0:	01aa102b 	sltu	v0,t5,t2
810009c4:	000c1a00 	sll	v1,t4,0x8
810009c8:	00804821 	move	t1,a0
810009cc:	14400005 	bnez	v0,810009e4 <LzmaDec_DecodeReal2+0x224>
810009d0:	94e50000 	lhu	a1,0(a3)
810009d4:	93020000 	lbu	v0,0(t8)
810009d8:	000a5200 	sll	t2,t2,0x8
810009dc:	27180001 	addiu	t8,t8,1
810009e0:	00626025 	or	t4,v1,v0
810009e4:	000a1ac2 	srl	v1,t2,0xb
810009e8:	70653002 	mul	a2,v1,a1
810009ec:	01651023 	subu	v0,t3,a1
810009f0:	00021142 	srl	v0,v0,0x5
810009f4:	00051942 	srl	v1,a1,0x5
810009f8:	00454021 	addu	t0,v0,a1
810009fc:	00a31823 	subu	v1,a1,v1
81000a00:	0186102b 	sltu	v0,t4,a2
81000a04:	1440ffe8 	bnez	v0,810009a8 <LzmaDec_DecodeReal2+0x1e8>
81000a08:	01465023 	subu	t2,t2,a2
81000a0c:	24890001 	addiu	t1,a0,1
81000a10:	2d220100 	sltiu	v0,t1,256
81000a14:	01866023 	subu	t4,t4,a2
81000a18:	1440ffe7 	bnez	v0,810009b8 <LzmaDec_DecodeReal2+0x1f8>
81000a1c:	a4e30000 	sh	v1,0(a3)
81000a20:	a2a90000 	sb	t1,0(s5)
81000a24:	3c028100 	lui	v0,0x8100
81000a28:	8fa30008 	lw	v1,8(sp)
81000a2c:	24422ae8 	addiu	v0,v0,10984
81000a30:	02821021 	addu	v0,s4,v0
81000a34:	26310001 	addiu	s1,s1,1
81000a38:	90540000 	lbu	s4,0(v0)
81000a3c:	0223102b 	sltu	v0,s1,v1
81000a40:	14400220 	bnez	v0,810012c4 <LzmaDec_DecodeReal2+0xb04>
81000a44:	27de0001 	addiu	s8,s8,1
81000a48:	3c0500ff 	lui	a1,0xff
81000a4c:	34a5ffff 	ori	a1,a1,0xffff
81000a50:	00aa102b 	sltu	v0,a1,t2
81000a54:	14400005 	bnez	v0,81000a6c <LzmaDec_DecodeReal2+0x2ac>
81000a58:	000c1200 	sll	v0,t4,0x8
81000a5c:	93030000 	lbu	v1,0(t8)
81000a60:	000a5200 	sll	t2,t2,0x8
81000a64:	00436025 	or	t4,v0,v1
81000a68:	27180001 	addiu	t8,t8,1
81000a6c:	8ec3000c 	lw	v1,12(s6)
81000a70:	8fa60010 	lw	a2,16(sp)
81000a74:	8fa70014 	lw	a3,20(sp)
81000a78:	8fa40018 	lw	a0,24(sp)
81000a7c:	8fa5001c 	lw	a1,28(sp)
81000a80:	03c3102b 	sltu	v0,s8,v1
81000a84:	aed80018 	sw	t8,24(s6)
81000a88:	aeca001c 	sw	t2,28(s6)
81000a8c:	aecc0020 	sw	t4,32(s6)
81000a90:	aed00048 	sw	s0,72(s6)
81000a94:	aed10024 	sw	s1,36(s6)
81000a98:	aec60038 	sw	a2,56(s6)
81000a9c:	aec7003c 	sw	a3,60(s6)
81000aa0:	aec40040 	sw	a0,64(s6)
81000aa4:	aec50044 	sw	a1,68(s6)
81000aa8:	aed40034 	sw	s4,52(s6)
81000aac:	14400002 	bnez	v0,81000ab8 <LzmaDec_DecodeReal2+0x2f8>
81000ab0:	aede002c 	sw	s8,44(s6)
81000ab4:	aec30030 	sw	v1,48(s6)
81000ab8:	8fa50000 	lw	a1,0(sp)
81000abc:	0c4001c1 	jal	81000704 <LzmaDec_WriteRem>
81000ac0:	02c02021 	move	a0,s6
81000ac4:	8ec70024 	lw	a3,36(s6)
81000ac8:	8fa60000 	lw	a2,0(sp)
81000acc:	00e6102b 	sltu	v0,a3,a2
81000ad0:	10400361 	beqz	v0,81001858 <LzmaDec_DecodeReal2+0x1098>
81000ad4:	00000000 	nop
81000ad8:	8ec80018 	lw	t0,24(s6)
81000adc:	8fa30004 	lw	v1,4(sp)
81000ae0:	0103102b 	sltu	v0,t0,v1
81000ae4:	1040035c 	beqz	v0,81001858 <LzmaDec_DecodeReal2+0x1098>
81000ae8:	00000000 	nop
81000aec:	8ec30048 	lw	v1,72(s6)
81000af0:	2c620112 	sltiu	v0,v1,274
81000af4:	1440ff42 	bnez	v0,81000800 <LzmaDec_DecodeReal2+0x40>
81000af8:	00000000 	nop
81000afc:	2c620113 	sltiu	v0,v1,275
81000b00:	14400003 	bnez	v0,81000b10 <LzmaDec_DecodeReal2+0x350>
81000b04:	8fbf005c 	lw	ra,92(sp)
81000b08:	24020112 	li	v0,274
81000b0c:	aec20048 	sw	v0,72(s6)
81000b10:	8fbe0058 	lw	s8,88(sp)
81000b14:	8fb70054 	lw	s7,84(sp)
81000b18:	8fb60050 	lw	s6,80(sp)
81000b1c:	8fb5004c 	lw	s5,76(sp)
81000b20:	8fb40048 	lw	s4,72(sp)
81000b24:	8fb30044 	lw	s3,68(sp)
81000b28:	8fb20040 	lw	s2,64(sp)
81000b2c:	8fb1003c 	lw	s1,60(sp)
81000b30:	8fb00038 	lw	s0,56(sp)
81000b34:	00001021 	move	v0,zero
81000b38:	03e00008 	jr	ra
81000b3c:	27bd0060 	addiu	sp,sp,96
81000b40:	00051142 	srl	v0,a1,0x5
81000b44:	00a21023 	subu	v0,a1,v0
81000b48:	a7220000 	sh	v0,0(t9)
81000b4c:	8fa2000c 	lw	v0,12(sp)
81000b50:	00141840 	sll	v1,s4,0x1
81000b54:	01465023 	subu	t2,t2,a2
81000b58:	00622021 	addu	a0,v1,v0
81000b5c:	3c0300ff 	lui	v1,0xff
81000b60:	3463ffff 	ori	v1,v1,0xffff
81000b64:	006a102b 	sltu	v0,v1,t2
81000b68:	01866023 	subu	t4,t4,a2
81000b6c:	14400006 	bnez	v0,81000b88 <LzmaDec_DecodeReal2+0x3c8>
81000b70:	94850180 	lhu	a1,384(a0)
81000b74:	93030000 	lbu	v1,0(t8)
81000b78:	000c1200 	sll	v0,t4,0x8
81000b7c:	000a5200 	sll	t2,t2,0x8
81000b80:	00436025 	or	t4,v0,v1
81000b84:	27180001 	addiu	t8,t8,1
81000b88:	000a12c2 	srl	v0,t2,0xb
81000b8c:	70453002 	mul	a2,v0,a1
81000b90:	0186182b 	sltu	v1,t4,a2
81000b94:	10600181 	beqz	v1,8100119c <LzmaDec_DecodeReal2+0x9dc>
81000b98:	01465023 	subu	t2,t2,a2
81000b9c:	24030800 	li	v1,2048
81000ba0:	00651023 	subu	v0,v1,a1
81000ba4:	00021142 	srl	v0,v0,0x5
81000ba8:	00451021 	addu	v0,v0,a1
81000bac:	8fa5000c 	lw	a1,12(sp)
81000bb0:	00c05021 	move	t2,a2
81000bb4:	2694000c 	addiu	s4,s4,12
81000bb8:	24b90664 	addiu	t9,a1,1636
81000bbc:	a4820180 	sh	v0,384(a0)
81000bc0:	3c0300ff 	lui	v1,0xff
81000bc4:	3463ffff 	ori	v1,v1,0xffff
81000bc8:	006a102b 	sltu	v0,v1,t2
81000bcc:	14400006 	bnez	v0,81000be8 <LzmaDec_DecodeReal2+0x428>
81000bd0:	97250000 	lhu	a1,0(t9)
81000bd4:	93030000 	lbu	v1,0(t8)
81000bd8:	000c1200 	sll	v0,t4,0x8
81000bdc:	000a5200 	sll	t2,t2,0x8
81000be0:	00436025 	or	t4,v0,v1
81000be4:	27180001 	addiu	t8,t8,1
81000be8:	000a12c2 	srl	v0,t2,0xb
81000bec:	70453002 	mul	a2,v0,a1
81000bf0:	0186182b 	sltu	v1,t4,a2
81000bf4:	106001bc 	beqz	v1,810012e8 <LzmaDec_DecodeReal2+0xb28>
81000bf8:	00051142 	srl	v0,a1,0x5
81000bfc:	24040800 	li	a0,2048
81000c00:	00851023 	subu	v0,a0,a1
81000c04:	00081900 	sll	v1,t0,0x4
81000c08:	00021142 	srl	v0,v0,0x5
81000c0c:	00791821 	addu	v1,v1,t9
81000c10:	00451021 	addu	v0,v0,a1
81000c14:	00c05021 	move	t2,a2
81000c18:	24640004 	addiu	a0,v1,4
81000c1c:	00007821 	move	t7,zero
81000c20:	240e0008 	li	t6,8
81000c24:	a7220000 	sh	v0,0(t9)
81000c28:	3c058100 	lui	a1,0x8100
81000c2c:	24a52b00 	addiu	a1,a1,11008
81000c30:	8cad0000 	lw	t5,0(a1)
81000c34:	24100001 	li	s0,1
81000c38:	08400314 	j	81000c50 <LzmaDec_DecodeReal2+0x490>
81000c3c:	240b0800 	li	t3,2048
81000c40:	020e102b 	sltu	v0,s0,t6
81000c44:	00c05021 	move	t2,a2
81000c48:	1040001b 	beqz	v0,81000cb8 <LzmaDec_DecodeReal2+0x4f8>
81000c4c:	a5090000 	sh	t1,0(t0)
81000c50:	00103840 	sll	a3,s0,0x1
81000c54:	00e44021 	addu	t0,a3,a0
81000c58:	01aa102b 	sltu	v0,t5,t2
81000c5c:	000c1a00 	sll	v1,t4,0x8
81000c60:	00e08021 	move	s0,a3
81000c64:	14400005 	bnez	v0,81000c7c <LzmaDec_DecodeReal2+0x4bc>
81000c68:	95050000 	lhu	a1,0(t0)
81000c6c:	93020000 	lbu	v0,0(t8)
81000c70:	000a5200 	sll	t2,t2,0x8
81000c74:	27180001 	addiu	t8,t8,1
81000c78:	00626025 	or	t4,v1,v0
81000c7c:	000a1ac2 	srl	v1,t2,0xb
81000c80:	70653002 	mul	a2,v1,a1
81000c84:	01651023 	subu	v0,t3,a1
81000c88:	00021142 	srl	v0,v0,0x5
81000c8c:	00051942 	srl	v1,a1,0x5
81000c90:	00454821 	addu	t1,v0,a1
81000c94:	00a31823 	subu	v1,a1,v1
81000c98:	0186102b 	sltu	v0,t4,a2
81000c9c:	1440ffe8 	bnez	v0,81000c40 <LzmaDec_DecodeReal2+0x480>
81000ca0:	01465023 	subu	t2,t2,a2
81000ca4:	24f00001 	addiu	s0,a3,1
81000ca8:	020e102b 	sltu	v0,s0,t6
81000cac:	01866023 	subu	t4,t4,a2
81000cb0:	1440ffe7 	bnez	v0,81000c50 <LzmaDec_DecodeReal2+0x490>
81000cb4:	a5030000 	sh	v1,0(t0)
81000cb8:	020e8023 	subu	s0,s0,t6
81000cbc:	2e82000c 	sltiu	v0,s4,12
81000cc0:	144000e1 	bnez	v0,81001048 <LzmaDec_DecodeReal2+0x888>
81000cc4:	020f8021 	addu	s0,s0,t7
81000cc8:	2e020004 	sltiu	v0,s0,4
81000ccc:	24030003 	li	v1,3
81000cd0:	0202180b 	movn	v1,s0,v0
81000cd4:	8fa2000c 	lw	v0,12(sp)
81000cd8:	000319c0 	sll	v1,v1,0x7
81000cdc:	00622021 	addu	a0,v1,v0
81000ce0:	3c0300ff 	lui	v1,0xff
81000ce4:	3463ffff 	ori	v1,v1,0xffff
81000ce8:	006a102b 	sltu	v0,v1,t2
81000cec:	24990360 	addiu	t9,a0,864
81000cf0:	14400006 	bnez	v0,81000d0c <LzmaDec_DecodeReal2+0x54c>
81000cf4:	94850362 	lhu	a1,866(a0)
81000cf8:	93030000 	lbu	v1,0(t8)
81000cfc:	000c1200 	sll	v0,t4,0x8
81000d00:	000a5200 	sll	t2,t2,0x8
81000d04:	00436025 	or	t4,v0,v1
81000d08:	27180001 	addiu	t8,t8,1
81000d0c:	000a12c2 	srl	v0,t2,0xb
81000d10:	70453002 	mul	a2,v0,a1
81000d14:	0186182b 	sltu	v1,t4,a2
81000d18:	10600221 	beqz	v1,810015a0 <LzmaDec_DecodeReal2+0xde0>
81000d1c:	00051142 	srl	v0,a1,0x5
81000d20:	24030800 	li	v1,2048
81000d24:	00651023 	subu	v0,v1,a1
81000d28:	00021142 	srl	v0,v0,0x5
81000d2c:	00451021 	addu	v0,v0,a1
81000d30:	00c05021 	move	t2,a2
81000d34:	240b0002 	li	t3,2
81000d38:	a4820362 	sh	v0,866(a0)
81000d3c:	3c0500ff 	lui	a1,0xff
81000d40:	34a5ffff 	ori	a1,a1,0xffff
81000d44:	000b3840 	sll	a3,t3,0x1
81000d48:	00f92021 	addu	a0,a3,t9
81000d4c:	00aa102b 	sltu	v0,a1,t2
81000d50:	14400006 	bnez	v0,81000d6c <LzmaDec_DecodeReal2+0x5ac>
81000d54:	94850000 	lhu	a1,0(a0)
81000d58:	93030000 	lbu	v1,0(t8)
81000d5c:	000c1200 	sll	v0,t4,0x8
81000d60:	000a5200 	sll	t2,t2,0x8
81000d64:	00436025 	or	t4,v0,v1
81000d68:	27180001 	addiu	t8,t8,1
81000d6c:	000a12c2 	srl	v0,t2,0xb
81000d70:	70453002 	mul	a2,v0,a1
81000d74:	0186182b 	sltu	v1,t4,a2
81000d78:	106001eb 	beqz	v1,81001528 <LzmaDec_DecodeReal2+0xd68>
81000d7c:	00051142 	srl	v0,a1,0x5
81000d80:	24030800 	li	v1,2048
81000d84:	00651023 	subu	v0,v1,a1
81000d88:	00021142 	srl	v0,v0,0x5
81000d8c:	00451021 	addu	v0,v0,a1
81000d90:	00c05021 	move	t2,a2
81000d94:	00e05821 	move	t3,a3
81000d98:	a4820000 	sh	v0,0(a0)
81000d9c:	3c0500ff 	lui	a1,0xff
81000da0:	34a5ffff 	ori	a1,a1,0xffff
81000da4:	000b3840 	sll	a3,t3,0x1
81000da8:	00f92021 	addu	a0,a3,t9
81000dac:	00aa102b 	sltu	v0,a1,t2
81000db0:	14400006 	bnez	v0,81000dcc <LzmaDec_DecodeReal2+0x60c>
81000db4:	94850000 	lhu	a1,0(a0)
81000db8:	93030000 	lbu	v1,0(t8)
81000dbc:	000c1200 	sll	v0,t4,0x8
81000dc0:	000a5200 	sll	t2,t2,0x8
81000dc4:	00436025 	or	t4,v0,v1
81000dc8:	27180001 	addiu	t8,t8,1
81000dcc:	000a12c2 	srl	v0,t2,0xb
81000dd0:	70453002 	mul	a2,v0,a1
81000dd4:	0186182b 	sltu	v1,t4,a2
81000dd8:	106001eb 	beqz	v1,81001588 <LzmaDec_DecodeReal2+0xdc8>
81000ddc:	00051142 	srl	v0,a1,0x5
81000de0:	24030800 	li	v1,2048
81000de4:	00651023 	subu	v0,v1,a1
81000de8:	00021142 	srl	v0,v0,0x5
81000dec:	00451021 	addu	v0,v0,a1
81000df0:	00c05021 	move	t2,a2
81000df4:	00e05821 	move	t3,a3
81000df8:	a4820000 	sh	v0,0(a0)
81000dfc:	3c0500ff 	lui	a1,0xff
81000e00:	34a5ffff 	ori	a1,a1,0xffff
81000e04:	000b3840 	sll	a3,t3,0x1
81000e08:	00f92021 	addu	a0,a3,t9
81000e0c:	00aa102b 	sltu	v0,a1,t2
81000e10:	14400006 	bnez	v0,81000e2c <LzmaDec_DecodeReal2+0x66c>
81000e14:	94850000 	lhu	a1,0(a0)
81000e18:	93030000 	lbu	v1,0(t8)
81000e1c:	000c1200 	sll	v0,t4,0x8
81000e20:	000a5200 	sll	t2,t2,0x8
81000e24:	00436025 	or	t4,v0,v1
81000e28:	27180001 	addiu	t8,t8,1
81000e2c:	000a12c2 	srl	v0,t2,0xb
81000e30:	70453002 	mul	a2,v0,a1
81000e34:	0186182b 	sltu	v1,t4,a2
81000e38:	106001cd 	beqz	v1,81001570 <LzmaDec_DecodeReal2+0xdb0>
81000e3c:	00051142 	srl	v0,a1,0x5
81000e40:	24030800 	li	v1,2048
81000e44:	00651023 	subu	v0,v1,a1
81000e48:	00021142 	srl	v0,v0,0x5
81000e4c:	00451021 	addu	v0,v0,a1
81000e50:	00c05021 	move	t2,a2
81000e54:	00e05821 	move	t3,a3
81000e58:	a4820000 	sh	v0,0(a0)
81000e5c:	3c0500ff 	lui	a1,0xff
81000e60:	34a5ffff 	ori	a1,a1,0xffff
81000e64:	000b3840 	sll	a3,t3,0x1
81000e68:	00f92021 	addu	a0,a3,t9
81000e6c:	00aa102b 	sltu	v0,a1,t2
81000e70:	14400006 	bnez	v0,81000e8c <LzmaDec_DecodeReal2+0x6cc>
81000e74:	94850000 	lhu	a1,0(a0)
81000e78:	93030000 	lbu	v1,0(t8)
81000e7c:	000c1200 	sll	v0,t4,0x8
81000e80:	000a5200 	sll	t2,t2,0x8
81000e84:	00436025 	or	t4,v0,v1
81000e88:	27180001 	addiu	t8,t8,1
81000e8c:	000a12c2 	srl	v0,t2,0xb
81000e90:	70453002 	mul	a2,v0,a1
81000e94:	0186182b 	sltu	v1,t4,a2
81000e98:	106001af 	beqz	v1,81001558 <LzmaDec_DecodeReal2+0xd98>
81000e9c:	00051142 	srl	v0,a1,0x5
81000ea0:	24030800 	li	v1,2048
81000ea4:	00651023 	subu	v0,v1,a1
81000ea8:	00021142 	srl	v0,v0,0x5
81000eac:	00451021 	addu	v0,v0,a1
81000eb0:	00c05021 	move	t2,a2
81000eb4:	00e05821 	move	t3,a3
81000eb8:	a4820000 	sh	v0,0(a0)
81000ebc:	3c0500ff 	lui	a1,0xff
81000ec0:	34a5ffff 	ori	a1,a1,0xffff
81000ec4:	000b3840 	sll	a3,t3,0x1
81000ec8:	00f92021 	addu	a0,a3,t9
81000ecc:	00aa102b 	sltu	v0,a1,t2
81000ed0:	14400006 	bnez	v0,81000eec <LzmaDec_DecodeReal2+0x72c>
81000ed4:	94850000 	lhu	a1,0(a0)
81000ed8:	93030000 	lbu	v1,0(t8)
81000edc:	000c1200 	sll	v0,t4,0x8
81000ee0:	000a5200 	sll	t2,t2,0x8
81000ee4:	00436025 	or	t4,v0,v1
81000ee8:	27180001 	addiu	t8,t8,1
81000eec:	000a12c2 	srl	v0,t2,0xb
81000ef0:	70453002 	mul	a2,v0,a1
81000ef4:	0186182b 	sltu	v1,t4,a2
81000ef8:	10600191 	beqz	v1,81001540 <LzmaDec_DecodeReal2+0xd80>
81000efc:	00051142 	srl	v0,a1,0x5
81000f00:	24030800 	li	v1,2048
81000f04:	00651023 	subu	v0,v1,a1
81000f08:	00021142 	srl	v0,v0,0x5
81000f0c:	00451021 	addu	v0,v0,a1
81000f10:	00c05021 	move	t2,a2
81000f14:	00e05821 	move	t3,a3
81000f18:	a4820000 	sh	v0,0(a0)
81000f1c:	256bffc0 	addiu	t3,t3,-64
81000f20:	2d620004 	sltiu	v0,t3,4
81000f24:	14400038 	bnez	v0,81001008 <LzmaDec_DecodeReal2+0x848>
81000f28:	8fa40018 	lw	a0,24(sp)
81000f2c:	000b2842 	srl	a1,t3,0x1
81000f30:	31620001 	andi	v0,t3,0x1
81000f34:	2d63000e 	sltiu	v1,t3,14
81000f38:	01602021 	move	a0,t3
81000f3c:	24a7ffff 	addiu	a3,a1,-1
81000f40:	106001ae 	beqz	v1,810015fc <LzmaDec_DecodeReal2+0xe3c>
81000f44:	344b0002 	ori	t3,v0,0x2
81000f48:	8fa5000c 	lw	a1,12(sp)
81000f4c:	00eb5804 	sllv	t3,t3,a3
81000f50:	3c068100 	lui	a2,0x8100
81000f54:	000b1040 	sll	v0,t3,0x1
81000f58:	24c62b00 	addiu	a2,a2,11008
81000f5c:	00451021 	addu	v0,v0,a1
81000f60:	00041840 	sll	v1,a0,0x1
81000f64:	8cd20000 	lw	s2,0(a2)
81000f68:	00431023 	subu	v0,v0,v1
81000f6c:	2459055e 	addiu	t9,v0,1374
81000f70:	240e0001 	li	t6,1
81000f74:	240d0001 	li	t5,1
81000f78:	084003e5 	j	81000f94 <LzmaDec_DecodeReal2+0x7d4>
81000f7c:	240f0800 	li	t7,2048
81000f80:	24e7ffff 	addiu	a3,a3,-1
81000f84:	00c05021 	move	t2,a2
81000f88:	a5090000 	sh	t1,0(t0)
81000f8c:	10e0001d 	beqz	a3,81001004 <LzmaDec_DecodeReal2+0x844>
81000f90:	000e7040 	sll	t6,t6,0x1
81000f94:	000d2040 	sll	a0,t5,0x1
81000f98:	00994021 	addu	t0,a0,t9
81000f9c:	024a102b 	sltu	v0,s2,t2
81000fa0:	000c1a00 	sll	v1,t4,0x8
81000fa4:	00806821 	move	t5,a0
81000fa8:	14400005 	bnez	v0,81000fc0 <LzmaDec_DecodeReal2+0x800>
81000fac:	95050000 	lhu	a1,0(t0)
81000fb0:	93020000 	lbu	v0,0(t8)
81000fb4:	000a5200 	sll	t2,t2,0x8
81000fb8:	27180001 	addiu	t8,t8,1
81000fbc:	00626025 	or	t4,v1,v0
81000fc0:	000a1ac2 	srl	v1,t2,0xb
81000fc4:	70653002 	mul	a2,v1,a1
81000fc8:	01e51023 	subu	v0,t7,a1
81000fcc:	00021142 	srl	v0,v0,0x5
81000fd0:	00051942 	srl	v1,a1,0x5
81000fd4:	00454821 	addu	t1,v0,a1
81000fd8:	00a31823 	subu	v1,a1,v1
81000fdc:	0186102b 	sltu	v0,t4,a2
81000fe0:	1440ffe7 	bnez	v0,81000f80 <LzmaDec_DecodeReal2+0x7c0>
81000fe4:	01465023 	subu	t2,t2,a2
81000fe8:	24e7ffff 	addiu	a3,a3,-1
81000fec:	016e5825 	or	t3,t3,t6
81000ff0:	01866023 	subu	t4,t4,a2
81000ff4:	248d0001 	addiu	t5,a0,1
81000ff8:	a5030000 	sh	v1,0(t0)
81000ffc:	14e0ffe5 	bnez	a3,81000f94 <LzmaDec_DecodeReal2+0x7d4>
81001000:	000e7040 	sll	t6,t6,0x1
81001004:	8fa40018 	lw	a0,24(sp)
81001008:	8fa50014 	lw	a1,20(sp)
8100100c:	8fa60010 	lw	a2,16(sp)
81001010:	8fa20030 	lw	v0,48(sp)
81001014:	25670001 	addiu	a3,t3,1
81001018:	afa4001c 	sw	a0,28(sp)
8100101c:	afa50018 	sw	a1,24(sp)
81001020:	afa60014 	sw	a2,20(sp)
81001024:	14400164 	bnez	v0,810015b8 <LzmaDec_DecodeReal2+0xdf8>
81001028:	afa70010 	sw	a3,16(sp)
8100102c:	017e102b 	sltu	v0,t3,s8
81001030:	10400166 	beqz	v0,810015cc <LzmaDec_DecodeReal2+0xe0c>
81001034:	8fbf005c 	lw	ra,92(sp)
81001038:	2e830013 	sltiu	v1,s4,19
8100103c:	2402000a 	li	v0,10
81001040:	24140007 	li	s4,7
81001044:	0043a00a 	movz	s4,v0,v1
81001048:	8fa40008 	lw	a0,8(sp)
8100104c:	1091015e 	beq	a0,s1,810015c8 <LzmaDec_DecodeReal2+0xe08>
81001050:	26100002 	addiu	s0,s0,2
81001054:	8fa60010 	lw	a2,16(sp)
81001058:	8fa3002c 	lw	v1,44(sp)
8100105c:	8fa7002c 	lw	a3,44(sp)
81001060:	0226102b 	sltu	v0,s1,a2
81001064:	70432002 	mul	a0,v0,v1
81001068:	02262823 	subu	a1,s1,a2
8100106c:	8fa60008 	lw	a2,8(sp)
81001070:	00d11823 	subu	v1,a2,s1
81001074:	0070102b 	sltu	v0,v1,s0
81001078:	00603021 	move	a2,v1
8100107c:	0202300a 	movz	a2,s0,v0
81001080:	03c6f021 	addu	s8,s8,a2
81001084:	00852821 	addu	a1,a0,a1
81001088:	00a61021 	addu	v0,a1,a2
8100108c:	00e2102b 	sltu	v0,a3,v0
81001090:	1440010d 	bnez	v0,810014c8 <LzmaDec_DecodeReal2+0xd08>
81001094:	02068023 	subu	s0,s0,a2
81001098:	02f12021 	addu	a0,s7,s1
8100109c:	00b13823 	subu	a3,a1,s1
810010a0:	02268821 	addu	s1,s1,a2
810010a4:	00862821 	addu	a1,a0,a2
810010a8:	00871021 	addu	v0,a0,a3
810010ac:	90430000 	lbu	v1,0(v0)
810010b0:	a0830000 	sb	v1,0(a0)
810010b4:	24840001 	addiu	a0,a0,1
810010b8:	1485fffc 	bne	a0,a1,810010ac <LzmaDec_DecodeReal2+0x8ec>
810010bc:	00871021 	addu	v0,a0,a3
810010c0:	084004ae 	j	810012b8 <LzmaDec_DecodeReal2+0xaf8>
810010c4:	8fa30008 	lw	v1,8(sp)
810010c8:	8fa5002c 	lw	a1,44(sp)
810010cc:	8ec20014 	lw	v0,20(s6)
810010d0:	02232023 	subu	a0,s1,v1
810010d4:	0223182b 	sltu	v1,s1,v1
810010d8:	70653002 	mul	a2,v1,a1
810010dc:	3c078100 	lui	a3,0x8100
810010e0:	24e72b00 	addiu	a3,a3,11008
810010e4:	8cf30000 	lw	s3,0(a3)
810010e8:	240d0100 	li	t5,256
810010ec:	24090001 	li	t1,1
810010f0:	24120800 	li	s2,2048
810010f4:	00c41821 	addu	v1,a2,a0
810010f8:	00431021 	addu	v0,v0,v1
810010fc:	08400448 	j	81001120 <LzmaDec_DecodeReal2+0x960>
81001100:	904b0000 	lbu	t3,0(v0)
81001104:	01ae6824 	and	t5,t5,t6
81001108:	00c05021 	move	t2,a2
8100110c:	00094840 	sll	t1,t1,0x1
81001110:	a4e80000 	sh	t0,0(a3)
81001114:	2d220100 	sltiu	v0,t1,256
81001118:	1040fe41 	beqz	v0,81000a20 <LzmaDec_DecodeReal2+0x260>
8100111c:	00000000 	nop
81001120:	000b5840 	sll	t3,t3,0x1
81001124:	016d2024 	and	a0,t3,t5
81001128:	01a41021 	addu	v0,t5,a0
8100112c:	00491021 	addu	v0,v0,t1
81001130:	00021040 	sll	v0,v0,0x1
81001134:	00593821 	addu	a3,v0,t9
81001138:	026a102b 	sltu	v0,s3,t2
8100113c:	00047027 	nor	t6,zero,a0
81001140:	000c1a00 	sll	v1,t4,0x8
81001144:	00097840 	sll	t7,t1,0x1
81001148:	14400005 	bnez	v0,81001160 <LzmaDec_DecodeReal2+0x9a0>
8100114c:	94e50000 	lhu	a1,0(a3)
81001150:	93020000 	lbu	v0,0(t8)
81001154:	000a5200 	sll	t2,t2,0x8
81001158:	27180001 	addiu	t8,t8,1
8100115c:	00626025 	or	t4,v1,v0
81001160:	000a1ac2 	srl	v1,t2,0xb
81001164:	70653002 	mul	a2,v1,a1
81001168:	02451023 	subu	v0,s2,a1
8100116c:	00021142 	srl	v0,v0,0x5
81001170:	00051942 	srl	v1,a1,0x5
81001174:	00454021 	addu	t0,v0,a1
81001178:	00a31823 	subu	v1,a1,v1
8100117c:	0186102b 	sltu	v0,t4,a2
81001180:	1440ffe0 	bnez	v0,81001104 <LzmaDec_DecodeReal2+0x944>
81001184:	01465023 	subu	t2,t2,a2
81001188:	01866023 	subu	t4,t4,a2
8100118c:	01a46824 	and	t5,t5,a0
81001190:	25e90001 	addiu	t1,t7,1
81001194:	08400445 	j	81001114 <LzmaDec_DecodeReal2+0x954>
81001198:	a4e30000 	sh	v1,0(a3)
8100119c:	01866023 	subu	t4,t4,a2
810011a0:	8fa60030 	lw	a2,48(sp)
810011a4:	00051142 	srl	v0,a1,0x5
810011a8:	00a21023 	subu	v0,a1,v0
810011ac:	14c00003 	bnez	a2,810011bc <LzmaDec_DecodeReal2+0x9fc>
810011b0:	a4820180 	sh	v0,384(a0)
810011b4:	13c00105 	beqz	s8,810015cc <LzmaDec_DecodeReal2+0xe0c>
810011b8:	8fbf005c 	lw	ra,92(sp)
810011bc:	3c078100 	lui	a3,0x8100
810011c0:	24e72b00 	addiu	a3,a3,11008
810011c4:	8ce90000 	lw	t1,0(a3)
810011c8:	94850198 	lhu	a1,408(a0)
810011cc:	012a102b 	sltu	v0,t1,t2
810011d0:	14400006 	bnez	v0,810011ec <LzmaDec_DecodeReal2+0xa2c>
810011d4:	00803821 	move	a3,a0
810011d8:	93030000 	lbu	v1,0(t8)
810011dc:	000c1200 	sll	v0,t4,0x8
810011e0:	000a5200 	sll	t2,t2,0x8
810011e4:	00436025 	or	t4,v0,v1
810011e8:	27180001 	addiu	t8,t8,1
810011ec:	000a12c2 	srl	v0,t2,0xb
810011f0:	70453002 	mul	a2,v0,a1
810011f4:	0186182b 	sltu	v1,t4,a2
810011f8:	1060005a 	beqz	v1,81001364 <LzmaDec_DecodeReal2+0xba4>
810011fc:	00051142 	srl	v0,a1,0x5
81001200:	8fa4000c 	lw	a0,12(sp)
81001204:	240b0800 	li	t3,2048
81001208:	01651023 	subu	v0,t3,a1
8100120c:	00021142 	srl	v0,v0,0x5
81001210:	00141940 	sll	v1,s4,0x5
81001214:	00451021 	addu	v0,v0,a1
81001218:	00641821 	addu	v1,v1,a0
8100121c:	00082040 	sll	a0,t0,0x1
81001220:	a4e20198 	sh	v0,408(a3)
81001224:	00642021 	addu	a0,v1,a0
81001228:	0126102b 	sltu	v0,t1,a2
8100122c:	00c05021 	move	t2,a2
81001230:	14400006 	bnez	v0,8100124c <LzmaDec_DecodeReal2+0xa8c>
81001234:	948501e0 	lhu	a1,480(a0)
81001238:	93030000 	lbu	v1,0(t8)
8100123c:	000c1200 	sll	v0,t4,0x8
81001240:	00065200 	sll	t2,a2,0x8
81001244:	00436025 	or	t4,v0,v1
81001248:	27180001 	addiu	t8,t8,1
8100124c:	000a12c2 	srl	v0,t2,0xb
81001250:	70453002 	mul	a2,v0,a1
81001254:	0186182b 	sltu	v1,t4,a2
81001258:	1060008b 	beqz	v1,81001488 <LzmaDec_DecodeReal2+0xcc8>
8100125c:	8fa30010 	lw	v1,16(sp)
81001260:	01651023 	subu	v0,t3,a1
81001264:	00021142 	srl	v0,v0,0x5
81001268:	00451021 	addu	v0,v0,a1
8100126c:	02232823 	subu	a1,s1,v1
81001270:	0223182b 	sltu	v1,s1,v1
81001274:	a48201e0 	sh	v0,480(a0)
81001278:	00c05021 	move	t2,a2
8100127c:	00b71021 	addu	v0,a1,s7
81001280:	10600004 	beqz	v1,81001294 <LzmaDec_DecodeReal2+0xad4>
81001284:	02f13021 	addu	a2,s7,s1
81001288:	8fa4002c 	lw	a0,44(sp)
8100128c:	00a41021 	addu	v0,a1,a0
81001290:	00571021 	addu	v0,v0,s7
81001294:	90440000 	lbu	a0,0(v0)
81001298:	2e830007 	sltiu	v1,s4,7
8100129c:	2402000b 	li	v0,11
810012a0:	24140009 	li	s4,9
810012a4:	0043a00a 	movz	s4,v0,v1
810012a8:	26310001 	addiu	s1,s1,1
810012ac:	27de0001 	addiu	s8,s8,1
810012b0:	a0c40000 	sb	a0,0(a2)
810012b4:	8fa30008 	lw	v1,8(sp)
810012b8:	0223102b 	sltu	v0,s1,v1
810012bc:	1040fde3 	beqz	v0,81000a4c <LzmaDec_DecodeReal2+0x28c>
810012c0:	3c0500ff 	lui	a1,0xff
810012c4:	8fa40004 	lw	a0,4(sp)
810012c8:	0304102b 	sltu	v0,t8,a0
810012cc:	1440fd7a 	bnez	v0,810008b8 <LzmaDec_DecodeReal2+0xf8>
810012d0:	8fa60020 	lw	a2,32(sp)
810012d4:	08400293 	j	81000a4c <LzmaDec_DecodeReal2+0x28c>
810012d8:	3c0500ff 	lui	a1,0xff
810012dc:	0237a821 	addu	s5,s1,s7
810012e0:	08400257 	j	8100095c <LzmaDec_DecodeReal2+0x19c>
810012e4:	26a2ffff 	addiu	v0,s5,-1
810012e8:	00a21023 	subu	v0,a1,v0
810012ec:	3c0500ff 	lui	a1,0xff
810012f0:	34a5ffff 	ori	a1,a1,0xffff
810012f4:	01465023 	subu	t2,t2,a2
810012f8:	00aa182b 	sltu	v1,a1,t2
810012fc:	01866023 	subu	t4,t4,a2
81001300:	a7220000 	sh	v0,0(t9)
81001304:	14600006 	bnez	v1,81001320 <LzmaDec_DecodeReal2+0xb60>
81001308:	97250002 	lhu	a1,2(t9)
8100130c:	93030000 	lbu	v1,0(t8)
81001310:	000c1200 	sll	v0,t4,0x8
81001314:	000a5200 	sll	t2,t2,0x8
81001318:	00436025 	or	t4,v0,v1
8100131c:	27180001 	addiu	t8,t8,1
81001320:	000a12c2 	srl	v0,t2,0xb
81001324:	70453002 	mul	a2,v0,a1
81001328:	0186182b 	sltu	v1,t4,a2
8100132c:	1060002f 	beqz	v1,810013ec <LzmaDec_DecodeReal2+0xc2c>
81001330:	00051142 	srl	v0,a1,0x5
81001334:	24040800 	li	a0,2048
81001338:	00851023 	subu	v0,a0,a1
8100133c:	00081900 	sll	v1,t0,0x4
81001340:	00791821 	addu	v1,v1,t9
81001344:	00021142 	srl	v0,v0,0x5
81001348:	00451021 	addu	v0,v0,a1
8100134c:	00c05021 	move	t2,a2
81001350:	24640104 	addiu	a0,v1,260
81001354:	240f0008 	li	t7,8
81001358:	240e0008 	li	t6,8
8100135c:	0840030a 	j	81000c28 <LzmaDec_DecodeReal2+0x468>
81001360:	a7220002 	sh	v0,2(t9)
81001364:	01465023 	subu	t2,t2,a2
81001368:	00a21023 	subu	v0,a1,v0
8100136c:	012a182b 	sltu	v1,t1,t2
81001370:	01866023 	subu	t4,t4,a2
81001374:	a4e20198 	sh	v0,408(a3)
81001378:	14600006 	bnez	v1,81001394 <LzmaDec_DecodeReal2+0xbd4>
8100137c:	94e501b0 	lhu	a1,432(a3)
81001380:	93030000 	lbu	v1,0(t8)
81001384:	000c1200 	sll	v0,t4,0x8
81001388:	000a5200 	sll	t2,t2,0x8
8100138c:	00436025 	or	t4,v0,v1
81001390:	27180001 	addiu	t8,t8,1
81001394:	000a12c2 	srl	v0,t2,0xb
81001398:	70453002 	mul	a2,v0,a1
8100139c:	0186182b 	sltu	v1,t4,a2
810013a0:	1060001c 	beqz	v1,81001414 <LzmaDec_DecodeReal2+0xc54>
810013a4:	00051142 	srl	v0,a1,0x5
810013a8:	24030800 	li	v1,2048
810013ac:	00651023 	subu	v0,v1,a1
810013b0:	00021142 	srl	v0,v0,0x5
810013b4:	8fa40014 	lw	a0,20(sp)
810013b8:	00451021 	addu	v0,v0,a1
810013bc:	00c05021 	move	t2,a2
810013c0:	a4e201b0 	sh	v0,432(a3)
810013c4:	8fa70010 	lw	a3,16(sp)
810013c8:	afa40010 	sw	a0,16(sp)
810013cc:	afa70014 	sw	a3,20(sp)
810013d0:	2e830007 	sltiu	v1,s4,7
810013d4:	2402000b 	li	v0,11
810013d8:	24140008 	li	s4,8
810013dc:	0043a00a 	movz	s4,v0,v1
810013e0:	8fa2000c 	lw	v0,12(sp)
810013e4:	084002f0 	j	81000bc0 <LzmaDec_DecodeReal2+0x400>
810013e8:	24590a68 	addiu	t9,v0,2664
810013ec:	00a21023 	subu	v0,a1,v0
810013f0:	01866023 	subu	t4,t4,a2
810013f4:	01465023 	subu	t2,t2,a2
810013f8:	27240204 	addiu	a0,t9,516
810013fc:	240f0010 	li	t7,16
81001400:	240e0100 	li	t6,256
81001404:	0840030a 	j	81000c28 <LzmaDec_DecodeReal2+0x468>
81001408:	a7220002 	sh	v0,2(t9)
8100140c:	0840020e 	j	81000838 <LzmaDec_DecodeReal2+0x78>
81001410:	8ec5002c 	lw	a1,44(s6)
81001414:	00a21023 	subu	v0,a1,v0
81001418:	3c0500ff 	lui	a1,0xff
8100141c:	34a5ffff 	ori	a1,a1,0xffff
81001420:	01465023 	subu	t2,t2,a2
81001424:	00aa182b 	sltu	v1,a1,t2
81001428:	01866023 	subu	t4,t4,a2
8100142c:	a4e201b0 	sh	v0,432(a3)
81001430:	14600006 	bnez	v1,8100144c <LzmaDec_DecodeReal2+0xc8c>
81001434:	94e501c8 	lhu	a1,456(a3)
81001438:	93030000 	lbu	v1,0(t8)
8100143c:	000c1200 	sll	v0,t4,0x8
81001440:	000a5200 	sll	t2,t2,0x8
81001444:	00436025 	or	t4,v0,v1
81001448:	27180001 	addiu	t8,t8,1
8100144c:	000a12c2 	srl	v0,t2,0xb
81001450:	70453002 	mul	a2,v0,a1
81001454:	0186182b 	sltu	v1,t4,a2
81001458:	10600011 	beqz	v1,810014a0 <LzmaDec_DecodeReal2+0xce0>
8100145c:	00051142 	srl	v0,a1,0x5
81001460:	24030800 	li	v1,2048
81001464:	00651023 	subu	v0,v1,a1
81001468:	00c05021 	move	t2,a2
8100146c:	8fa40018 	lw	a0,24(sp)
81001470:	8fa60014 	lw	a2,20(sp)
81001474:	00021142 	srl	v0,v0,0x5
81001478:	00451021 	addu	v0,v0,a1
8100147c:	a4e201c8 	sh	v0,456(a3)
81001480:	084004f1 	j	810013c4 <LzmaDec_DecodeReal2+0xc04>
81001484:	afa60018 	sw	a2,24(sp)
81001488:	00051142 	srl	v0,a1,0x5
8100148c:	00a21023 	subu	v0,a1,v0
81001490:	01866023 	subu	t4,t4,a2
81001494:	01465023 	subu	t2,t2,a2
81001498:	084004f4 	j	810013d0 <LzmaDec_DecodeReal2+0xc10>
8100149c:	a48201e0 	sh	v0,480(a0)
810014a0:	00a21023 	subu	v0,a1,v0
810014a4:	a48201c8 	sh	v0,456(a0)
810014a8:	8fa50018 	lw	a1,24(sp)
810014ac:	01866023 	subu	t4,t4,a2
810014b0:	8fa4001c 	lw	a0,28(sp)
810014b4:	01465023 	subu	t2,t2,a2
810014b8:	8fa60014 	lw	a2,20(sp)
810014bc:	afa5001c 	sw	a1,28(sp)
810014c0:	084004f1 	j	810013c4 <LzmaDec_DecodeReal2+0xc04>
810014c4:	afa60018 	sw	a2,24(sp)
810014c8:	02e51021 	addu	v0,s7,a1
810014cc:	8fa7002c 	lw	a3,44(sp)
810014d0:	90440000 	lbu	a0,0(v0)
810014d4:	24a50001 	addiu	a1,a1,1
810014d8:	02371021 	addu	v0,s1,s7
810014dc:	00a71826 	xor	v1,a1,a3
810014e0:	24c6ffff 	addiu	a2,a2,-1
810014e4:	a0440000 	sb	a0,0(v0)
810014e8:	0003280a 	movz	a1,zero,v1
810014ec:	10c0ff71 	beqz	a2,810012b4 <LzmaDec_DecodeReal2+0xaf4>
810014f0:	26310001 	addiu	s1,s1,1
810014f4:	02e51021 	addu	v0,s7,a1
810014f8:	8fa7002c 	lw	a3,44(sp)
810014fc:	90440000 	lbu	a0,0(v0)
81001500:	24a50001 	addiu	a1,a1,1
81001504:	02371021 	addu	v0,s1,s7
81001508:	00a71826 	xor	v1,a1,a3
8100150c:	24c6ffff 	addiu	a2,a2,-1
81001510:	a0440000 	sb	a0,0(v0)
81001514:	0003280a 	movz	a1,zero,v1
81001518:	14c0ffeb 	bnez	a2,810014c8 <LzmaDec_DecodeReal2+0xd08>
8100151c:	26310001 	addiu	s1,s1,1
81001520:	084004ae 	j	810012b8 <LzmaDec_DecodeReal2+0xaf8>
81001524:	8fa30008 	lw	v1,8(sp)
81001528:	00a21023 	subu	v0,a1,v0
8100152c:	01866023 	subu	t4,t4,a2
81001530:	01465023 	subu	t2,t2,a2
81001534:	24eb0001 	addiu	t3,a3,1
81001538:	08400367 	j	81000d9c <LzmaDec_DecodeReal2+0x5dc>
8100153c:	a4820000 	sh	v0,0(a0)
81001540:	00a21023 	subu	v0,a1,v0
81001544:	01866023 	subu	t4,t4,a2
81001548:	01465023 	subu	t2,t2,a2
8100154c:	24eb0001 	addiu	t3,a3,1
81001550:	084003c7 	j	81000f1c <LzmaDec_DecodeReal2+0x75c>
81001554:	a4820000 	sh	v0,0(a0)
81001558:	00a21023 	subu	v0,a1,v0
8100155c:	01866023 	subu	t4,t4,a2
81001560:	01465023 	subu	t2,t2,a2
81001564:	24eb0001 	addiu	t3,a3,1
81001568:	084003af 	j	81000ebc <LzmaDec_DecodeReal2+0x6fc>
8100156c:	a4820000 	sh	v0,0(a0)
81001570:	00a21023 	subu	v0,a1,v0
81001574:	01866023 	subu	t4,t4,a2
81001578:	01465023 	subu	t2,t2,a2
8100157c:	24eb0001 	addiu	t3,a3,1
81001580:	08400397 	j	81000e5c <LzmaDec_DecodeReal2+0x69c>
81001584:	a4820000 	sh	v0,0(a0)
81001588:	00a21023 	subu	v0,a1,v0
8100158c:	01866023 	subu	t4,t4,a2
81001590:	01465023 	subu	t2,t2,a2
81001594:	24eb0001 	addiu	t3,a3,1
81001598:	0840037f 	j	81000dfc <LzmaDec_DecodeReal2+0x63c>
8100159c:	a4820000 	sh	v0,0(a0)
810015a0:	00a21023 	subu	v0,a1,v0
810015a4:	01866023 	subu	t4,t4,a2
810015a8:	01465023 	subu	t2,t2,a2
810015ac:	240b0003 	li	t3,3
810015b0:	0840034f 	j	81000d3c <LzmaDec_DecodeReal2+0x57c>
810015b4:	a4820362 	sh	v0,866(a0)
810015b8:	8fa30030 	lw	v1,48(sp)
810015bc:	0163102b 	sltu	v0,t3,v1
810015c0:	1440fe9e 	bnez	v0,8100103c <LzmaDec_DecodeReal2+0x87c>
810015c4:	2e830013 	sltiu	v1,s4,19
810015c8:	8fbf005c 	lw	ra,92(sp)
810015cc:	8fbe0058 	lw	s8,88(sp)
810015d0:	8fb70054 	lw	s7,84(sp)
810015d4:	8fb60050 	lw	s6,80(sp)
810015d8:	8fb5004c 	lw	s5,76(sp)
810015dc:	8fb40048 	lw	s4,72(sp)
810015e0:	8fb30044 	lw	s3,68(sp)
810015e4:	8fb20040 	lw	s2,64(sp)
810015e8:	8fb1003c 	lw	s1,60(sp)
810015ec:	8fb00038 	lw	s0,56(sp)
810015f0:	24020001 	li	v0,1
810015f4:	03e00008 	jr	ra
810015f8:	27bd0060 	addiu	sp,sp,96
810015fc:	24a7fffb 	addiu	a3,a1,-5
81001600:	3c028100 	lui	v0,0x8100
81001604:	24422b00 	addiu	v0,v0,11008
81001608:	8c450000 	lw	a1,0(v0)
8100160c:	00aa102b 	sltu	v0,a1,t2
81001610:	000b1840 	sll	v1,t3,0x1
81001614:	24e7ffff 	addiu	a3,a3,-1
81001618:	14400005 	bnez	v0,81001630 <LzmaDec_DecodeReal2+0xe70>
8100161c:	000c2200 	sll	a0,t4,0x8
81001620:	93020000 	lbu	v0,0(t8)
81001624:	000a5200 	sll	t2,t2,0x8
81001628:	27180001 	addiu	t8,t8,1
8100162c:	00826025 	or	t4,a0,v0
81001630:	000a5042 	srl	t2,t2,0x1
81001634:	018a6023 	subu	t4,t4,t2
81001638:	000c17c2 	srl	v0,t4,0x1f
8100163c:	00021023 	negu	v0,v0
81001640:	00621821 	addu	v1,v1,v0
81001644:	01421024 	and	v0,t2,v0
81001648:	01826021 	addu	t4,t4,v0
8100164c:	14e0ffef 	bnez	a3,8100160c <LzmaDec_DecodeReal2+0xe4c>
81001650:	246b0001 	addiu	t3,v1,1
81001654:	8fa4000c 	lw	a0,12(sp)
81001658:	3c0300ff 	lui	v1,0xff
8100165c:	3463ffff 	ori	v1,v1,0xffff
81001660:	006a102b 	sltu	v0,v1,t2
81001664:	000b5900 	sll	t3,t3,0x4
81001668:	24990644 	addiu	t9,a0,1604
8100166c:	14400006 	bnez	v0,81001688 <LzmaDec_DecodeReal2+0xec8>
81001670:	94850646 	lhu	a1,1606(a0)
81001674:	93030000 	lbu	v1,0(t8)
81001678:	000c1200 	sll	v0,t4,0x8
8100167c:	000a5200 	sll	t2,t2,0x8
81001680:	00436025 	or	t4,v0,v1
81001684:	27180001 	addiu	t8,t8,1
81001688:	000a12c2 	srl	v0,t2,0xb
8100168c:	70453002 	mul	a2,v0,a1
81001690:	0186182b 	sltu	v1,t4,a2
81001694:	10600062 	beqz	v1,81001820 <LzmaDec_DecodeReal2+0x1060>
81001698:	8fa7000c 	lw	a3,12(sp)
8100169c:	24030800 	li	v1,2048
810016a0:	00651023 	subu	v0,v1,a1
810016a4:	00021142 	srl	v0,v0,0x5
810016a8:	00451021 	addu	v0,v0,a1
810016ac:	8fa5000c 	lw	a1,12(sp)
810016b0:	00c05021 	move	t2,a2
810016b4:	24040002 	li	a0,2
810016b8:	a4a20646 	sh	v0,1606(a1)
810016bc:	3c0300ff 	lui	v1,0xff
810016c0:	00042040 	sll	a0,a0,0x1
810016c4:	3463ffff 	ori	v1,v1,0xffff
810016c8:	00993821 	addu	a3,a0,t9
810016cc:	006a102b 	sltu	v0,v1,t2
810016d0:	14400006 	bnez	v0,810016ec <LzmaDec_DecodeReal2+0xf2c>
810016d4:	94e50000 	lhu	a1,0(a3)
810016d8:	93030000 	lbu	v1,0(t8)
810016dc:	000c1200 	sll	v0,t4,0x8
810016e0:	000a5200 	sll	t2,t2,0x8
810016e4:	00436025 	or	t4,v0,v1
810016e8:	27180001 	addiu	t8,t8,1
810016ec:	000a12c2 	srl	v0,t2,0xb
810016f0:	70453002 	mul	a2,v0,a1
810016f4:	0186182b 	sltu	v1,t4,a2
810016f8:	10600042 	beqz	v1,81001804 <LzmaDec_DecodeReal2+0x1044>
810016fc:	00051142 	srl	v0,a1,0x5
81001700:	24030800 	li	v1,2048
81001704:	00651023 	subu	v0,v1,a1
81001708:	00021142 	srl	v0,v0,0x5
8100170c:	00451021 	addu	v0,v0,a1
81001710:	00c05021 	move	t2,a2
81001714:	a4e20000 	sh	v0,0(a3)
81001718:	3c0500ff 	lui	a1,0xff
8100171c:	34a5ffff 	ori	a1,a1,0xffff
81001720:	00042040 	sll	a0,a0,0x1
81001724:	00993821 	addu	a3,a0,t9
81001728:	00aa102b 	sltu	v0,a1,t2
8100172c:	14400006 	bnez	v0,81001748 <LzmaDec_DecodeReal2+0xf88>
81001730:	94e50000 	lhu	a1,0(a3)
81001734:	93030000 	lbu	v1,0(t8)
81001738:	000c1200 	sll	v0,t4,0x8
8100173c:	000a5200 	sll	t2,t2,0x8
81001740:	00436025 	or	t4,v0,v1
81001744:	27180001 	addiu	t8,t8,1
81001748:	000a12c2 	srl	v0,t2,0xb
8100174c:	70453002 	mul	a2,v0,a1
81001750:	0186182b 	sltu	v1,t4,a2
81001754:	10600024 	beqz	v1,810017e8 <LzmaDec_DecodeReal2+0x1028>
81001758:	00051142 	srl	v0,a1,0x5
8100175c:	24030800 	li	v1,2048
81001760:	00651023 	subu	v0,v1,a1
81001764:	00021142 	srl	v0,v0,0x5
81001768:	00451021 	addu	v0,v0,a1
8100176c:	00c05021 	move	t2,a2
81001770:	a4e20000 	sh	v0,0(a3)
81001774:	3c0500ff 	lui	a1,0xff
81001778:	34a5ffff 	ori	a1,a1,0xffff
8100177c:	00041040 	sll	v0,a0,0x1
81001780:	00592021 	addu	a0,v0,t9
81001784:	00aa182b 	sltu	v1,a1,t2
81001788:	14600006 	bnez	v1,810017a4 <LzmaDec_DecodeReal2+0xfe4>
8100178c:	94850000 	lhu	a1,0(a0)
81001790:	93030000 	lbu	v1,0(t8)
81001794:	000c1200 	sll	v0,t4,0x8
81001798:	000a5200 	sll	t2,t2,0x8
8100179c:	00436025 	or	t4,v0,v1
810017a0:	27180001 	addiu	t8,t8,1
810017a4:	000a12c2 	srl	v0,t2,0xb
810017a8:	70453002 	mul	a2,v0,a1
810017ac:	0186182b 	sltu	v1,t4,a2
810017b0:	10600023 	beqz	v1,81001840 <LzmaDec_DecodeReal2+0x1080>
810017b4:	00051142 	srl	v0,a1,0x5
810017b8:	24030800 	li	v1,2048
810017bc:	00651023 	subu	v0,v1,a1
810017c0:	00021142 	srl	v0,v0,0x5
810017c4:	00451021 	addu	v0,v0,a1
810017c8:	00c05021 	move	t2,a2
810017cc:	a4820000 	sh	v0,0(a0)
810017d0:	2402ffff 	li	v0,-1
810017d4:	1562fe0c 	bne	t3,v0,81001008 <LzmaDec_DecodeReal2+0x848>
810017d8:	8fa40018 	lw	a0,24(sp)
810017dc:	26100112 	addiu	s0,s0,274
810017e0:	08400292 	j	81000a48 <LzmaDec_DecodeReal2+0x288>
810017e4:	2694fff4 	addiu	s4,s4,-12
810017e8:	00a21023 	subu	v0,a1,v0
810017ec:	01866023 	subu	t4,t4,a2
810017f0:	01465023 	subu	t2,t2,a2
810017f4:	24840001 	addiu	a0,a0,1
810017f8:	356b0004 	ori	t3,t3,0x4
810017fc:	084005dd 	j	81001774 <LzmaDec_DecodeReal2+0xfb4>
81001800:	a4e20000 	sh	v0,0(a3)
81001804:	00a21023 	subu	v0,a1,v0
81001808:	01866023 	subu	t4,t4,a2
8100180c:	01465023 	subu	t2,t2,a2
81001810:	24840001 	addiu	a0,a0,1
81001814:	356b0002 	ori	t3,t3,0x2
81001818:	084005c6 	j	81001718 <LzmaDec_DecodeReal2+0xf58>
8100181c:	a4e20000 	sh	v0,0(a3)
81001820:	00051142 	srl	v0,a1,0x5
81001824:	00a21023 	subu	v0,a1,v0
81001828:	01866023 	subu	t4,t4,a2
8100182c:	01465023 	subu	t2,t2,a2
81001830:	356b0001 	ori	t3,t3,0x1
81001834:	24040003 	li	a0,3
81001838:	084005af 	j	810016bc <LzmaDec_DecodeReal2+0xefc>
8100183c:	a4e20646 	sh	v0,1606(a3)
81001840:	00a21023 	subu	v0,a1,v0
81001844:	01866023 	subu	t4,t4,a2
81001848:	01465023 	subu	t2,t2,a2
8100184c:	356b0008 	ori	t3,t3,0x8
81001850:	084005f4 	j	810017d0 <LzmaDec_DecodeReal2+0x1010>
81001854:	a4820000 	sh	v0,0(a0)
81001858:	084002bf 	j	81000afc <LzmaDec_DecodeReal2+0x33c>
8100185c:	8ec30048 	lw	v1,72(s6)

81001860 <LzmaDec_TryDummy>:
81001860:	27bdfff8 	addiu	sp,sp,-8
81001864:	afb10004 	sw	s1,4(sp)
81001868:	afb00000 	sw	s0,0(sp)
8100186c:	8c830008 	lw	v1,8(a0)
81001870:	8c8f0034 	lw	t7,52(a0)
81001874:	8c87002c 	lw	a3,44(a0)
81001878:	24020001 	li	v0,1
8100187c:	00621004 	sllv	v0,v0,v1
81001880:	2442ffff 	addiu	v0,v0,-1
81001884:	00e25824 	and	t3,a3,v0
81001888:	8c88001c 	lw	t0,28(a0)
8100188c:	8c980010 	lw	t8,16(a0)
81001890:	000f1100 	sll	v0,t7,0x4
81001894:	004b1021 	addu	v0,v0,t3
81001898:	3c0300ff 	lui	v1,0xff
8100189c:	00021040 	sll	v0,v0,0x1
810018a0:	3463ffff 	ori	v1,v1,0xffff
810018a4:	00587021 	addu	t6,v0,t8
810018a8:	0068182b 	sltu	v1,v1,t0
810018ac:	00a6c821 	addu	t9,a1,a2
810018b0:	95c90000 	lhu	t1,0(t6)
810018b4:	14600009 	bnez	v1,810018dc <LzmaDec_TryDummy+0x7c>
810018b8:	8c8a0020 	lw	t2,32(a0)
810018bc:	00b9102b 	sltu	v0,a1,t9
810018c0:	1040004e 	beqz	v0,810019fc <LzmaDec_TryDummy+0x19c>
810018c4:	00001821 	move	v1,zero
810018c8:	90a30000 	lbu	v1,0(a1)
810018cc:	000a1200 	sll	v0,t2,0x8
810018d0:	00084200 	sll	t0,t0,0x8
810018d4:	00435025 	or	t2,v0,v1
810018d8:	24a50001 	addiu	a1,a1,1
810018dc:	000812c2 	srl	v0,t0,0xb
810018e0:	70493002 	mul	a2,v0,t1
810018e4:	0146182b 	sltu	v1,t2,a2
810018e8:	10600049 	beqz	v1,81001a10 <LzmaDec_TryDummy+0x1b0>
810018ec:	3c0200ff 	lui	v0,0xff
810018f0:	8c820030 	lw	v0,48(a0)
810018f4:	00c04021 	move	t0,a2
810018f8:	104000bb 	beqz	v0,81001be8 <LzmaDec_TryDummy+0x388>
810018fc:	270e0e6c 	addiu	t6,t8,3692
81001900:	8c830004 	lw	v1,4(a0)
81001904:	24020001 	li	v0,1
81001908:	8c860000 	lw	a2,0(a0)
8100190c:	00621004 	sllv	v0,v0,v1
81001910:	8c830024 	lw	v1,36(a0)
81001914:	2442ffff 	addiu	v0,v0,-1
81001918:	00e21024 	and	v0,a3,v0
8100191c:	14600112 	bnez	v1,81001d68 <LzmaDec_TryDummy+0x508>
81001920:	00c23804 	sllv	a3,v0,a2
81001924:	8c820014 	lw	v0,20(a0)
81001928:	8c830028 	lw	v1,40(a0)
8100192c:	00431021 	addu	v0,v0,v1
81001930:	2442ffff 	addiu	v0,v0,-1
81001934:	90420000 	lbu	v0,0(v0)
81001938:	24030008 	li	v1,8
8100193c:	00661823 	subu	v1,v1,a2
81001940:	00621007 	srav	v0,v0,v1
81001944:	00e21021 	addu	v0,a3,v0
81001948:	00021840 	sll	v1,v0,0x1
8100194c:	00621821 	addu	v1,v1,v0
81001950:	00031a40 	sll	v1,v1,0x9
81001954:	01c37021 	addu	t6,t6,v1
81001958:	2de20007 	sltiu	v0,t7,7
8100195c:	104000a6 	beqz	v0,81001bf8 <LzmaDec_TryDummy+0x398>
81001960:	3c0200ff 	lui	v0,0xff
81001964:	344cffff 	ori	t4,v0,0xffff
81001968:	0840065f 	j	8100197c <LzmaDec_TryDummy+0x11c>
8100196c:	24040001 	li	a0,1
81001970:	2c820100 	sltiu	v0,a0,256
81001974:	10400017 	beqz	v0,810019d4 <LzmaDec_TryDummy+0x174>
81001978:	00c04021 	move	t0,a2
8100197c:	00043840 	sll	a3,a0,0x1
81001980:	00ee1021 	addu	v0,a3,t6
81001984:	0188182b 	sltu	v1,t4,t0
81001988:	00e02021 	move	a0,a3
8100198c:	000a5a00 	sll	t3,t2,0x8
81001990:	00b9302b 	sltu	a2,a1,t9
81001994:	14600006 	bnez	v1,810019b0 <LzmaDec_TryDummy+0x150>
81001998:	94490000 	lhu	t1,0(v0)
8100199c:	10c0014b 	beqz	a2,81001ecc <LzmaDec_TryDummy+0x66c>
810019a0:	00084200 	sll	t0,t0,0x8
810019a4:	90a20000 	lbu	v0,0(a1)
810019a8:	24a50001 	addiu	a1,a1,1
810019ac:	01625025 	or	t2,t3,v0
810019b0:	000812c2 	srl	v0,t0,0xb
810019b4:	70493002 	mul	a2,v0,t1
810019b8:	0146102b 	sltu	v0,t2,a2
810019bc:	1440ffec 	bnez	v0,81001970 <LzmaDec_TryDummy+0x110>
810019c0:	01064023 	subu	t0,t0,a2
810019c4:	24e40001 	addiu	a0,a3,1
810019c8:	2c820100 	sltiu	v0,a0,256
810019cc:	1440ffeb 	bnez	v0,8100197c <LzmaDec_TryDummy+0x11c>
810019d0:	01465023 	subu	t2,t2,a2
810019d4:	24110001 	li	s1,1
810019d8:	3c0200ff 	lui	v0,0xff
810019dc:	3442ffff 	ori	v0,v0,0xffff
810019e0:	0048102b 	sltu	v0,v0,t0
810019e4:	14400005 	bnez	v0,810019fc <LzmaDec_TryDummy+0x19c>
810019e8:	02201821 	move	v1,s1
810019ec:	00b9102b 	sltu	v0,a1,t9
810019f0:	10400002 	beqz	v0,810019fc <LzmaDec_TryDummy+0x19c>
810019f4:	00001821 	move	v1,zero
810019f8:	02201821 	move	v1,s1
810019fc:	8fb10004 	lw	s1,4(sp)
81001a00:	8fb00000 	lw	s0,0(sp)
81001a04:	00601021 	move	v0,v1
81001a08:	03e00008 	jr	ra
81001a0c:	27bd0008 	addiu	sp,sp,8
81001a10:	01064023 	subu	t0,t0,a2
81001a14:	000f2040 	sll	a0,t7,0x1
81001a18:	3442ffff 	ori	v0,v0,0xffff
81001a1c:	00981821 	addu	v1,a0,t8
81001a20:	0048102b 	sltu	v0,v0,t0
81001a24:	01465023 	subu	t2,t2,a2
81001a28:	10400066 	beqz	v0,81001bc4 <LzmaDec_TryDummy+0x364>
81001a2c:	94690180 	lhu	t1,384(v1)
81001a30:	000812c2 	srl	v0,t0,0xb
81001a34:	70493002 	mul	a2,v0,t1
81001a38:	0146182b 	sltu	v1,t2,a2
81001a3c:	1060009f 	beqz	v1,81001cbc <LzmaDec_TryDummy+0x45c>
81001a40:	3c0200ff 	lui	v0,0xff
81001a44:	00c04021 	move	t0,a2
81001a48:	00007821 	move	t7,zero
81001a4c:	270e0664 	addiu	t6,t8,1636
81001a50:	24110002 	li	s1,2
81001a54:	3c0200ff 	lui	v0,0xff
81001a58:	3442ffff 	ori	v0,v0,0xffff
81001a5c:	0048102b 	sltu	v0,v0,t0
81001a60:	14400009 	bnez	v0,81001a88 <LzmaDec_TryDummy+0x228>
81001a64:	95c90000 	lhu	t1,0(t6)
81001a68:	00b9102b 	sltu	v0,a1,t9
81001a6c:	1040ffe3 	beqz	v0,810019fc <LzmaDec_TryDummy+0x19c>
81001a70:	00001821 	move	v1,zero
81001a74:	90a30000 	lbu	v1,0(a1)
81001a78:	000a1200 	sll	v0,t2,0x8
81001a7c:	00084200 	sll	t0,t0,0x8
81001a80:	00435025 	or	t2,v0,v1
81001a84:	24a50001 	addiu	a1,a1,1
81001a88:	000812c2 	srl	v0,t0,0xb
81001a8c:	70493002 	mul	a2,v0,t1
81001a90:	0146182b 	sltu	v1,t2,a2
81001a94:	106000b9 	beqz	v1,81001d7c <LzmaDec_TryDummy+0x51c>
81001a98:	3c0200ff 	lui	v0,0xff
81001a9c:	000b1100 	sll	v0,t3,0x4
81001aa0:	004e1021 	addu	v0,v0,t6
81001aa4:	00c04021 	move	t0,a2
81001aa8:	244d0004 	addiu	t5,v0,4
81001aac:	00008021 	move	s0,zero
81001ab0:	240e0008 	li	t6,8
81001ab4:	3c0200ff 	lui	v0,0xff
81001ab8:	3444ffff 	ori	a0,v0,0xffff
81001abc:	084006b4 	j	81001ad0 <LzmaDec_TryDummy+0x270>
81001ac0:	240b0001 	li	t3,1
81001ac4:	016e102b 	sltu	v0,t3,t6
81001ac8:	10400017 	beqz	v0,81001b28 <LzmaDec_TryDummy+0x2c8>
81001acc:	00c04021 	move	t0,a2
81001ad0:	000b3840 	sll	a3,t3,0x1
81001ad4:	00ed1021 	addu	v0,a3,t5
81001ad8:	0088182b 	sltu	v1,a0,t0
81001adc:	00e05821 	move	t3,a3
81001ae0:	000a6200 	sll	t4,t2,0x8
81001ae4:	00b9302b 	sltu	a2,a1,t9
81001ae8:	14600006 	bnez	v1,81001b04 <LzmaDec_TryDummy+0x2a4>
81001aec:	94490000 	lhu	t1,0(v0)
81001af0:	10c000f6 	beqz	a2,81001ecc <LzmaDec_TryDummy+0x66c>
81001af4:	00084200 	sll	t0,t0,0x8
81001af8:	90a20000 	lbu	v0,0(a1)
81001afc:	24a50001 	addiu	a1,a1,1
81001b00:	01825025 	or	t2,t4,v0
81001b04:	000812c2 	srl	v0,t0,0xb
81001b08:	70493002 	mul	a2,v0,t1
81001b0c:	0146102b 	sltu	v0,t2,a2
81001b10:	1440ffec 	bnez	v0,81001ac4 <LzmaDec_TryDummy+0x264>
81001b14:	01064023 	subu	t0,t0,a2
81001b18:	24eb0001 	addiu	t3,a3,1
81001b1c:	016e102b 	sltu	v0,t3,t6
81001b20:	1440ffeb 	bnez	v0,81001ad0 <LzmaDec_TryDummy+0x270>
81001b24:	01465023 	subu	t2,t2,a2
81001b28:	016e5823 	subu	t3,t3,t6
81001b2c:	2de20004 	sltiu	v0,t7,4
81001b30:	1040ffa9 	beqz	v0,810019d8 <LzmaDec_TryDummy+0x178>
81001b34:	01705821 	addu	t3,t3,s0
81001b38:	2d620004 	sltiu	v0,t3,4
81001b3c:	24030003 	li	v1,3
81001b40:	0162180b 	movn	v1,t3,v0
81001b44:	000319c0 	sll	v1,v1,0x7
81001b48:	00781821 	addu	v1,v1,t8
81001b4c:	3c0200ff 	lui	v0,0xff
81001b50:	246e0360 	addiu	t6,v1,864
81001b54:	344cffff 	ori	t4,v0,0xffff
81001b58:	084006dc 	j	81001b70 <LzmaDec_TryDummy+0x310>
81001b5c:	240b0001 	li	t3,1
81001b60:	00c04021 	move	t0,a2
81001b64:	2d620040 	sltiu	v0,t3,64
81001b68:	104000de 	beqz	v0,81001ee4 <LzmaDec_TryDummy+0x684>
81001b6c:	00000000 	nop
81001b70:	000b3840 	sll	a3,t3,0x1
81001b74:	00ee1021 	addu	v0,a3,t6
81001b78:	0188182b 	sltu	v1,t4,t0
81001b7c:	00e05821 	move	t3,a3
81001b80:	000a3200 	sll	a2,t2,0x8
81001b84:	00b9202b 	sltu	a0,a1,t9
81001b88:	14600006 	bnez	v1,81001ba4 <LzmaDec_TryDummy+0x344>
81001b8c:	94490000 	lhu	t1,0(v0)
81001b90:	108000ce 	beqz	a0,81001ecc <LzmaDec_TryDummy+0x66c>
81001b94:	00084200 	sll	t0,t0,0x8
81001b98:	90a20000 	lbu	v0,0(a1)
81001b9c:	24a50001 	addiu	a1,a1,1
81001ba0:	00c25025 	or	t2,a2,v0
81001ba4:	000812c2 	srl	v0,t0,0xb
81001ba8:	70493002 	mul	a2,v0,t1
81001bac:	0146102b 	sltu	v0,t2,a2
81001bb0:	1440ffeb 	bnez	v0,81001b60 <LzmaDec_TryDummy+0x300>
81001bb4:	01064023 	subu	t0,t0,a2
81001bb8:	01465023 	subu	t2,t2,a2
81001bbc:	084006d9 	j	81001b64 <LzmaDec_TryDummy+0x304>
81001bc0:	24eb0001 	addiu	t3,a3,1
81001bc4:	00b9102b 	sltu	v0,a1,t9
81001bc8:	1040ff8c 	beqz	v0,810019fc <LzmaDec_TryDummy+0x19c>
81001bcc:	00001821 	move	v1,zero
81001bd0:	90a30000 	lbu	v1,0(a1)
81001bd4:	000a1200 	sll	v0,t2,0x8
81001bd8:	00084200 	sll	t0,t0,0x8
81001bdc:	00435025 	or	t2,v0,v1
81001be0:	0840068c 	j	81001a30 <LzmaDec_TryDummy+0x1d0>
81001be4:	24a50001 	addiu	a1,a1,1
81001be8:	10e0ff5c 	beqz	a3,8100195c <LzmaDec_TryDummy+0xfc>
81001bec:	2de20007 	sltiu	v0,t7,7
81001bf0:	08400641 	j	81001904 <LzmaDec_TryDummy+0xa4>
81001bf4:	8c830004 	lw	v1,4(a0)
81001bf8:	8c870024 	lw	a3,36(a0)
81001bfc:	8c860038 	lw	a2,56(a0)
81001c00:	00e6102b 	sltu	v0,a3,a2
81001c04:	1040005a 	beqz	v0,81001d70 <LzmaDec_TryDummy+0x510>
81001c08:	00e61023 	subu	v0,a3,a2
81001c0c:	8c820028 	lw	v0,40(a0)
81001c10:	8c840014 	lw	a0,20(a0)
81001c14:	00e61823 	subu	v1,a3,a2
81001c18:	00621821 	addu	v1,v1,v0
81001c1c:	00831021 	addu	v0,a0,v1
81001c20:	90440000 	lbu	a0,0(v0)
81001c24:	3c0200ff 	lui	v0,0xff
81001c28:	3450ffff 	ori	s0,v0,0xffff
81001c2c:	240d0100 	li	t5,256
81001c30:	08400714 	j	81001c50 <LzmaDec_TryDummy+0x3f0>
81001c34:	240c0001 	li	t4,1
81001c38:	01af6824 	and	t5,t5,t7
81001c3c:	00c04021 	move	t0,a2
81001c40:	000c6040 	sll	t4,t4,0x1
81001c44:	2d820100 	sltiu	v0,t4,256
81001c48:	1040ff63 	beqz	v0,810019d8 <LzmaDec_TryDummy+0x178>
81001c4c:	24110001 	li	s1,1
81001c50:	00042040 	sll	a0,a0,0x1
81001c54:	008d3824 	and	a3,a0,t5
81001c58:	01a71021 	addu	v0,t5,a3
81001c5c:	004c1021 	addu	v0,v0,t4
81001c60:	00021040 	sll	v0,v0,0x1
81001c64:	004e1021 	addu	v0,v0,t6
81001c68:	0208182b 	sltu	v1,s0,t0
81001c6c:	00077827 	nor	t7,zero,a3
81001c70:	000cc040 	sll	t8,t4,0x1
81001c74:	000a5a00 	sll	t3,t2,0x8
81001c78:	00b9302b 	sltu	a2,a1,t9
81001c7c:	14600006 	bnez	v1,81001c98 <LzmaDec_TryDummy+0x438>
81001c80:	94490000 	lhu	t1,0(v0)
81001c84:	10c00091 	beqz	a2,81001ecc <LzmaDec_TryDummy+0x66c>
81001c88:	00084200 	sll	t0,t0,0x8
81001c8c:	90a20000 	lbu	v0,0(a1)
81001c90:	24a50001 	addiu	a1,a1,1
81001c94:	01625025 	or	t2,t3,v0
81001c98:	000812c2 	srl	v0,t0,0xb
81001c9c:	70493002 	mul	a2,v0,t1
81001ca0:	0146102b 	sltu	v0,t2,a2
81001ca4:	1440ffe4 	bnez	v0,81001c38 <LzmaDec_TryDummy+0x3d8>
81001ca8:	01064023 	subu	t0,t0,a2
81001cac:	01465023 	subu	t2,t2,a2
81001cb0:	01a76824 	and	t5,t5,a3
81001cb4:	08400711 	j	81001c44 <LzmaDec_TryDummy+0x3e4>
81001cb8:	270c0001 	addiu	t4,t8,1
81001cbc:	01064023 	subu	t0,t0,a2
81001cc0:	3442ffff 	ori	v0,v0,0xffff
81001cc4:	00981821 	addu	v1,a0,t8
81001cc8:	0048102b 	sltu	v0,v0,t0
81001ccc:	01465023 	subu	t2,t2,a2
81001cd0:	94690198 	lhu	t1,408(v1)
81001cd4:	14400009 	bnez	v0,81001cfc <LzmaDec_TryDummy+0x49c>
81001cd8:	24110003 	li	s1,3
81001cdc:	00b9102b 	sltu	v0,a1,t9
81001ce0:	1040ff46 	beqz	v0,810019fc <LzmaDec_TryDummy+0x19c>
81001ce4:	00001821 	move	v1,zero
81001ce8:	90a30000 	lbu	v1,0(a1)
81001cec:	000a1200 	sll	v0,t2,0x8
81001cf0:	00084200 	sll	t0,t0,0x8
81001cf4:	00435025 	or	t2,v0,v1
81001cf8:	24a50001 	addiu	a1,a1,1
81001cfc:	000812c2 	srl	v0,t0,0xb
81001d00:	70493002 	mul	a2,v0,t1
81001d04:	0146182b 	sltu	v1,t2,a2
81001d08:	10600035 	beqz	v1,81001de0 <LzmaDec_TryDummy+0x580>
81001d0c:	3c0200ff 	lui	v0,0xff
81001d10:	000f2140 	sll	a0,t7,0x5
81001d14:	00982021 	addu	a0,a0,t8
81001d18:	000b1840 	sll	v1,t3,0x1
81001d1c:	3442ffff 	ori	v0,v0,0xffff
81001d20:	00832021 	addu	a0,a0,v1
81001d24:	0046102b 	sltu	v0,v0,a2
81001d28:	00c04021 	move	t0,a2
81001d2c:	10400059 	beqz	v0,81001e94 <LzmaDec_TryDummy+0x634>
81001d30:	948901e0 	lhu	t1,480(a0)
81001d34:	000812c2 	srl	v0,t0,0xb
81001d38:	70493002 	mul	a2,v0,t1
81001d3c:	0146182b 	sltu	v1,t2,a2
81001d40:	1060005d 	beqz	v1,81001eb8 <LzmaDec_TryDummy+0x658>
81001d44:	3c0200ff 	lui	v0,0xff
81001d48:	3442ffff 	ori	v0,v0,0xffff
81001d4c:	0046102b 	sltu	v0,v0,a2
81001d50:	14400003 	bnez	v0,81001d60 <LzmaDec_TryDummy+0x500>
81001d54:	00b9102b 	sltu	v0,a1,t9
81001d58:	1040ff28 	beqz	v0,810019fc <LzmaDec_TryDummy+0x19c>
81001d5c:	00001821 	move	v1,zero
81001d60:	0840067f 	j	810019fc <LzmaDec_TryDummy+0x19c>
81001d64:	24030003 	li	v1,3
81001d68:	0840064b 	j	8100192c <LzmaDec_TryDummy+0xcc>
81001d6c:	8c820014 	lw	v0,20(a0)
81001d70:	8c830014 	lw	v1,20(a0)
81001d74:	08400708 	j	81001c20 <LzmaDec_TryDummy+0x3c0>
81001d78:	00621021 	addu	v0,v1,v0
81001d7c:	01064023 	subu	t0,t0,a2
81001d80:	3442ffff 	ori	v0,v0,0xffff
81001d84:	0048102b 	sltu	v0,v0,t0
81001d88:	01465023 	subu	t2,t2,a2
81001d8c:	14400009 	bnez	v0,81001db4 <LzmaDec_TryDummy+0x554>
81001d90:	95c90002 	lhu	t1,2(t6)
81001d94:	00b9102b 	sltu	v0,a1,t9
81001d98:	1040ff18 	beqz	v0,810019fc <LzmaDec_TryDummy+0x19c>
81001d9c:	00001821 	move	v1,zero
81001da0:	90a30000 	lbu	v1,0(a1)
81001da4:	000a1200 	sll	v0,t2,0x8
81001da8:	00084200 	sll	t0,t0,0x8
81001dac:	00435025 	or	t2,v0,v1
81001db0:	24a50001 	addiu	a1,a1,1
81001db4:	000812c2 	srl	v0,t0,0xb
81001db8:	70493002 	mul	a2,v0,t1
81001dbc:	0146182b 	sltu	v1,t2,a2
81001dc0:	10600075 	beqz	v1,81001f98 <LzmaDec_TryDummy+0x738>
81001dc4:	000b1100 	sll	v0,t3,0x4
81001dc8:	004e1021 	addu	v0,v0,t6
81001dcc:	00c04021 	move	t0,a2
81001dd0:	244d0104 	addiu	t5,v0,260
81001dd4:	24100008 	li	s0,8
81001dd8:	084006ad 	j	81001ab4 <LzmaDec_TryDummy+0x254>
81001ddc:	240e0008 	li	t6,8
81001de0:	01064023 	subu	t0,t0,a2
81001de4:	3442ffff 	ori	v0,v0,0xffff
81001de8:	00981821 	addu	v1,a0,t8
81001dec:	0048102b 	sltu	v0,v0,t0
81001df0:	01465023 	subu	t2,t2,a2
81001df4:	1040001e 	beqz	v0,81001e70 <LzmaDec_TryDummy+0x610>
81001df8:	946901b0 	lhu	t1,432(v1)
81001dfc:	000812c2 	srl	v0,t0,0xb
81001e00:	70493002 	mul	a2,v0,t1
81001e04:	0146182b 	sltu	v1,t2,a2
81001e08:	14600015 	bnez	v1,81001e60 <LzmaDec_TryDummy+0x600>
81001e0c:	3c0200ff 	lui	v0,0xff
81001e10:	01064023 	subu	t0,t0,a2
81001e14:	3442ffff 	ori	v0,v0,0xffff
81001e18:	00981821 	addu	v1,a0,t8
81001e1c:	0048102b 	sltu	v0,v0,t0
81001e20:	01465023 	subu	t2,t2,a2
81001e24:	14400009 	bnez	v0,81001e4c <LzmaDec_TryDummy+0x5ec>
81001e28:	946901c8 	lhu	t1,456(v1)
81001e2c:	00b9102b 	sltu	v0,a1,t9
81001e30:	1040fef2 	beqz	v0,810019fc <LzmaDec_TryDummy+0x19c>
81001e34:	00001821 	move	v1,zero
81001e38:	90a30000 	lbu	v1,0(a1)
81001e3c:	000a1200 	sll	v0,t2,0x8
81001e40:	00084200 	sll	t0,t0,0x8
81001e44:	00435025 	or	t2,v0,v1
81001e48:	24a50001 	addiu	a1,a1,1
81001e4c:	000812c2 	srl	v0,t0,0xb
81001e50:	70493002 	mul	a2,v0,t1
81001e54:	0146182b 	sltu	v1,t2,a2
81001e58:	10600017 	beqz	v1,81001eb8 <LzmaDec_TryDummy+0x658>
81001e5c:	00000000 	nop
81001e60:	00c04021 	move	t0,a2
81001e64:	240f000c 	li	t7,12
81001e68:	08400695 	j	81001a54 <LzmaDec_TryDummy+0x1f4>
81001e6c:	270e0a68 	addiu	t6,t8,2664
81001e70:	00b9102b 	sltu	v0,a1,t9
81001e74:	1040fee1 	beqz	v0,810019fc <LzmaDec_TryDummy+0x19c>
81001e78:	00001821 	move	v1,zero
81001e7c:	90a30000 	lbu	v1,0(a1)
81001e80:	000a1200 	sll	v0,t2,0x8
81001e84:	00084200 	sll	t0,t0,0x8
81001e88:	00435025 	or	t2,v0,v1
81001e8c:	0840077f 	j	81001dfc <LzmaDec_TryDummy+0x59c>
81001e90:	24a50001 	addiu	a1,a1,1
81001e94:	00b9102b 	sltu	v0,a1,t9
81001e98:	1040fed8 	beqz	v0,810019fc <LzmaDec_TryDummy+0x19c>
81001e9c:	00001821 	move	v1,zero
81001ea0:	90a30000 	lbu	v1,0(a1)
81001ea4:	000a1200 	sll	v0,t2,0x8
81001ea8:	00064200 	sll	t0,a2,0x8
81001eac:	00435025 	or	t2,v0,v1
81001eb0:	0840074d 	j	81001d34 <LzmaDec_TryDummy+0x4d4>
81001eb4:	24a50001 	addiu	a1,a1,1
81001eb8:	01465023 	subu	t2,t2,a2
81001ebc:	01064023 	subu	t0,t0,a2
81001ec0:	240f000c 	li	t7,12
81001ec4:	08400695 	j	81001a54 <LzmaDec_TryDummy+0x1f4>
81001ec8:	270e0a68 	addiu	t6,t8,2664
81001ecc:	8fb10004 	lw	s1,4(sp)
81001ed0:	8fb00000 	lw	s0,0(sp)
81001ed4:	00001821 	move	v1,zero
81001ed8:	00601021 	move	v0,v1
81001edc:	03e00008 	jr	ra
81001ee0:	27bd0008 	addiu	sp,sp,8
81001ee4:	256bffc0 	addiu	t3,t3,-64
81001ee8:	2d620004 	sltiu	v0,t3,4
81001eec:	1440febb 	bnez	v0,810019dc <LzmaDec_TryDummy+0x17c>
81001ef0:	3c0200ff 	lui	v0,0xff
81001ef4:	000b1842 	srl	v1,t3,0x1
81001ef8:	2d62000e 	sltiu	v0,t3,14
81001efc:	1040002c 	beqz	v0,81001fb0 <LzmaDec_TryDummy+0x750>
81001f00:	246cffff 	addiu	t4,v1,-1
81001f04:	31620001 	andi	v0,t3,0x1
81001f08:	34420002 	ori	v0,v0,0x2
81001f0c:	01821004 	sllv	v0,v0,t4
81001f10:	00021040 	sll	v0,v0,0x1
81001f14:	00581021 	addu	v0,v0,t8
81001f18:	000b1840 	sll	v1,t3,0x1
81001f1c:	00431023 	subu	v0,v0,v1
81001f20:	244e055e 	addiu	t6,v0,1374
81001f24:	3c0200ff 	lui	v0,0xff
81001f28:	344dffff 	ori	t5,v0,0xffff
81001f2c:	084007d1 	j	81001f44 <LzmaDec_TryDummy+0x6e4>
81001f30:	240b0001 	li	t3,1
81001f34:	00c04021 	move	t0,a2
81001f38:	258cffff 	addiu	t4,t4,-1
81001f3c:	1180fea7 	beqz	t4,810019dc <LzmaDec_TryDummy+0x17c>
81001f40:	3c0200ff 	lui	v0,0xff
81001f44:	000b3840 	sll	a3,t3,0x1
81001f48:	00ee1021 	addu	v0,a3,t6
81001f4c:	01a8182b 	sltu	v1,t5,t0
81001f50:	00e05821 	move	t3,a3
81001f54:	000a3200 	sll	a2,t2,0x8
81001f58:	00b9202b 	sltu	a0,a1,t9
81001f5c:	14600006 	bnez	v1,81001f78 <LzmaDec_TryDummy+0x718>
81001f60:	94490000 	lhu	t1,0(v0)
81001f64:	1080ffd9 	beqz	a0,81001ecc <LzmaDec_TryDummy+0x66c>
81001f68:	00084200 	sll	t0,t0,0x8
81001f6c:	90a20000 	lbu	v0,0(a1)
81001f70:	24a50001 	addiu	a1,a1,1
81001f74:	00c25025 	or	t2,a2,v0
81001f78:	000812c2 	srl	v0,t0,0xb
81001f7c:	70493002 	mul	a2,v0,t1
81001f80:	0146102b 	sltu	v0,t2,a2
81001f84:	1440ffeb 	bnez	v0,81001f34 <LzmaDec_TryDummy+0x6d4>
81001f88:	01064023 	subu	t0,t0,a2
81001f8c:	01465023 	subu	t2,t2,a2
81001f90:	084007ce 	j	81001f38 <LzmaDec_TryDummy+0x6d8>
81001f94:	24eb0001 	addiu	t3,a3,1
81001f98:	25cd0204 	addiu	t5,t6,516
81001f9c:	01465023 	subu	t2,t2,a2
81001fa0:	01064023 	subu	t0,t0,a2
81001fa4:	24100010 	li	s0,16
81001fa8:	084006ad 	j	81001ab4 <LzmaDec_TryDummy+0x254>
81001fac:	240e0100 	li	t6,256
81001fb0:	3c0200ff 	lui	v0,0xff
81001fb4:	246cfffb 	addiu	t4,v1,-5
81001fb8:	3446ffff 	ori	a2,v0,0xffff
81001fbc:	00c8102b 	sltu	v0,a2,t0
81001fc0:	258cffff 	addiu	t4,t4,-1
81001fc4:	000a2200 	sll	a0,t2,0x8
81001fc8:	14400006 	bnez	v0,81001fe4 <LzmaDec_TryDummy+0x784>
81001fcc:	00b9182b 	sltu	v1,a1,t9
81001fd0:	1060ffbe 	beqz	v1,81001ecc <LzmaDec_TryDummy+0x66c>
81001fd4:	00084200 	sll	t0,t0,0x8
81001fd8:	90a20000 	lbu	v0,0(a1)
81001fdc:	24a50001 	addiu	a1,a1,1
81001fe0:	00825025 	or	t2,a0,v0
81001fe4:	00084042 	srl	t0,t0,0x1
81001fe8:	01481023 	subu	v0,t2,t0
81001fec:	000217c2 	srl	v0,v0,0x1f
81001ff0:	00001821 	move	v1,zero
81001ff4:	0102180a 	movz	v1,t0,v0
81001ff8:	1580fff0 	bnez	t4,81001fbc <LzmaDec_TryDummy+0x75c>
81001ffc:	01435023 	subu	t2,t2,v1
81002000:	270e0644 	addiu	t6,t8,1604
81002004:	084007c9 	j	81001f24 <LzmaDec_TryDummy+0x6c4>
81002008:	240c0004 	li	t4,4

8100200c <LzmaDec_InitDicAndState>:
8100200c:	24020001 	li	v0,1
81002010:	ac82004c 	sw	v0,76(a0)
81002014:	ac800048 	sw	zero,72(a0)
81002018:	10a00004 	beqz	a1,8100202c <LzmaDec_InitDicAndState+0x20>
8100201c:	ac800058 	sw	zero,88(a0)
81002020:	ac820050 	sw	v0,80(a0)
81002024:	ac80002c 	sw	zero,44(a0)
81002028:	ac800030 	sw	zero,48(a0)
8100202c:	10c00002 	beqz	a2,81002038 <LzmaDec_InitDicAndState+0x2c>
81002030:	00000000 	nop
81002034:	ac820050 	sw	v0,80(a0)
81002038:	03e00008 	jr	ra
8100203c:	00000000 	nop

81002040 <LzmaDec_Init>:
81002040:	27bdfff8 	addiu	sp,sp,-8
81002044:	ac800024 	sw	zero,36(a0)
81002048:	24050001 	li	a1,1
8100204c:	afbf0000 	sw	ra,0(sp)
81002050:	0c400803 	jal	8100200c <LzmaDec_InitDicAndState>
81002054:	24060001 	li	a2,1
81002058:	8fbf0000 	lw	ra,0(sp)
8100205c:	03e00008 	jr	ra
81002060:	27bd0008 	addiu	sp,sp,8

81002064 <LzmaDec_DecodeToDic>:
81002064:	27bdffd0 	addiu	sp,sp,-48
81002068:	afb40018 	sw	s4,24(sp)
8100206c:	8cf40000 	lw	s4,0(a3)
81002070:	ace00000 	sw	zero,0(a3)
81002074:	afbe0028 	sw	s8,40(sp)
81002078:	afb60020 	sw	s6,32(sp)
8100207c:	afb5001c 	sw	s5,28(sp)
81002080:	afb1000c 	sw	s1,12(sp)
81002084:	afbf002c 	sw	ra,44(sp)
81002088:	00808821 	move	s1,a0
8100208c:	afb70024 	sw	s7,36(sp)
81002090:	afb30014 	sw	s3,20(sp)
81002094:	afb20010 	sw	s2,16(sp)
81002098:	afb00008 	sw	s0,8(sp)
8100209c:	00e0b021 	move	s6,a3
810020a0:	afa90004 	sw	t1,4(sp)
810020a4:	00c0a821 	move	s5,a2
810020a8:	afa80000 	sw	t0,0(sp)
810020ac:	0c4001c1 	jal	81000704 <LzmaDec_WriteRem>
810020b0:	00a0f021 	move	s8,a1
810020b4:	8fa20004 	lw	v0,4(sp)
810020b8:	8e230048 	lw	v1,72(s1)
810020bc:	ac400000 	sw	zero,0(v0)
810020c0:	24020112 	li	v0,274
810020c4:	10620074 	beq	v1,v0,81002298 <LzmaDec_DecodeToDic+0x234>
810020c8:	00000000 	nop
810020cc:	8e22004c 	lw	v0,76(s1)
810020d0:	10400027 	beqz	v0,81002170 <LzmaDec_DecodeToDic+0x10c>
810020d4:	00000000 	nop
810020d8:	1280000f 	beqz	s4,81002118 <LzmaDec_DecodeToDic+0xb4>
810020dc:	00000000 	nop
810020e0:	8e250058 	lw	a1,88(s1)
810020e4:	2ca20005 	sltiu	v0,a1,5
810020e8:	1040000c 	beqz	v0,8100211c <LzmaDec_DecodeToDic+0xb8>
810020ec:	00b11021 	addu	v0,a1,s1
810020f0:	92a30000 	lbu	v1,0(s5)
810020f4:	24a40001 	addiu	a0,a1,1
810020f8:	a043005c 	sb	v1,92(v0)
810020fc:	ae240058 	sw	a0,88(s1)
81002100:	8ec20000 	lw	v0,0(s6)
81002104:	2694ffff 	addiu	s4,s4,-1
81002108:	26b50001 	addiu	s5,s5,1
8100210c:	24420001 	addiu	v0,v0,1
81002110:	1680fff3 	bnez	s4,810020e0 <LzmaDec_DecodeToDic+0x7c>
81002114:	aec20000 	sw	v0,0(s6)
81002118:	8e250058 	lw	a1,88(s1)
8100211c:	2ca20005 	sltiu	v0,a1,5
81002120:	144000ab 	bnez	v0,810023d0 <LzmaDec_DecodeToDic+0x36c>
81002124:	8fa30004 	lw	v1,4(sp)
81002128:	9222005c 	lbu	v0,92(s1)
8100212c:	144000a3 	bnez	v0,810023bc <LzmaDec_DecodeToDic+0x358>
81002130:	2630005c 	addiu	s0,s1,92
81002134:	92020001 	lbu	v0,1(s0)
81002138:	92030002 	lbu	v1,2(s0)
8100213c:	92040003 	lbu	a0,3(s0)
81002140:	92050004 	lbu	a1,4(s0)
81002144:	00021600 	sll	v0,v0,0x18
81002148:	00031c00 	sll	v1,v1,0x10
8100214c:	00431025 	or	v0,v0,v1
81002150:	00042200 	sll	a0,a0,0x8
81002154:	00441025 	or	v0,v0,a0
81002158:	00452825 	or	a1,v0,a1
8100215c:	2402ffff 	li	v0,-1
81002160:	ae250020 	sw	a1,32(s1)
81002164:	ae22001c 	sw	v0,28(s1)
81002168:	ae20004c 	sw	zero,76(s1)
8100216c:	ae200058 	sw	zero,88(s1)
81002170:	8e220024 	lw	v0,36(s1)
81002174:	005e102b 	sltu	v0,v0,s8
81002178:	1440000b 	bnez	v0,810021a8 <LzmaDec_DecodeToDic+0x144>
8100217c:	0000b821 	move	s7,zero
81002180:	8e230048 	lw	v1,72(s1)
81002184:	14600004 	bnez	v1,81002198 <LzmaDec_DecodeToDic+0x134>
81002188:	8fa40000 	lw	a0,0(sp)
8100218c:	8e220020 	lw	v0,32(s1)
81002190:	104000af 	beqz	v0,81002450 <LzmaDec_DecodeToDic+0x3ec>
81002194:	24020004 	li	v0,4
81002198:	10800096 	beqz	a0,810023f4 <LzmaDec_DecodeToDic+0x390>
8100219c:	24020002 	li	v0,2
810021a0:	1460008f 	bnez	v1,810023e0 <LzmaDec_DecodeToDic+0x37c>
810021a4:	24170001 	li	s7,1
810021a8:	8e220050 	lw	v0,80(s1)
810021ac:	10400016 	beqz	v0,81002208 <LzmaDec_DecodeToDic+0x1a4>
810021b0:	24020300 	li	v0,768
810021b4:	8e230004 	lw	v1,4(s1)
810021b8:	8e240000 	lw	a0,0(s1)
810021bc:	00832021 	addu	a0,a0,v1
810021c0:	00821004 	sllv	v0,v0,a0
810021c4:	24430736 	addiu	v1,v0,1846
810021c8:	10600008 	beqz	v1,810021ec <LzmaDec_DecodeToDic+0x188>
810021cc:	8e250010 	lw	a1,16(s1)
810021d0:	00a01821 	move	v1,a1
810021d4:	24420736 	addiu	v0,v0,1846
810021d8:	24040400 	li	a0,1024
810021dc:	2442ffff 	addiu	v0,v0,-1
810021e0:	a4640000 	sh	a0,0(v1)
810021e4:	1440fffd 	bnez	v0,810021dc <LzmaDec_DecodeToDic+0x178>
810021e8:	24630002 	addiu	v1,v1,2
810021ec:	24020001 	li	v0,1
810021f0:	ae220038 	sw	v0,56(s1)
810021f4:	ae220044 	sw	v0,68(s1)
810021f8:	ae220040 	sw	v0,64(s1)
810021fc:	ae22003c 	sw	v0,60(s1)
81002200:	ae200034 	sw	zero,52(s1)
81002204:	ae200050 	sw	zero,80(s1)
81002208:	8e260058 	lw	a2,88(s1)
8100220c:	14c00035 	bnez	a2,810022e4 <LzmaDec_DecodeToDic+0x280>
81002210:	2cc20014 	sltiu	v0,a2,20
81002214:	2e820014 	sltiu	v0,s4,20
81002218:	14400004 	bnez	v0,8100222c <LzmaDec_DecodeToDic+0x1c8>
8100221c:	02202021 	move	a0,s1
81002220:	12e00064 	beqz	s7,810023b4 <LzmaDec_DecodeToDic+0x350>
81002224:	02b41021 	addu	v0,s5,s4
81002228:	02202021 	move	a0,s1
8100222c:	02a02821 	move	a1,s5
81002230:	0c400618 	jal	81001860 <LzmaDec_TryDummy>
81002234:	02803021 	move	a2,s4
81002238:	10400072 	beqz	v0,81002404 <LzmaDec_DecodeToDic+0x3a0>
8100223c:	02a02821 	move	a1,s5
81002240:	12e00003 	beqz	s7,81002250 <LzmaDec_DecodeToDic+0x1ec>
81002244:	24030002 	li	v1,2
81002248:	1443005e 	bne	v0,v1,810023c4 <LzmaDec_DecodeToDic+0x360>
8100224c:	8fa20004 	lw	v0,4(sp)
81002250:	02a03021 	move	a2,s5
81002254:	ae350018 	sw	s5,24(s1)
81002258:	02202021 	move	a0,s1
8100225c:	0c4001f0 	jal	810007c0 <LzmaDec_DecodeReal2>
81002260:	03c02821 	move	a1,s8
81002264:	14400055 	bnez	v0,810023bc <LzmaDec_DecodeToDic+0x358>
81002268:	00000000 	nop
8100226c:	8e220018 	lw	v0,24(s1)
81002270:	8ec30000 	lw	v1,0(s6)
81002274:	00551023 	subu	v0,v0,s5
81002278:	00621821 	addu	v1,v1,v0
8100227c:	aec30000 	sw	v1,0(s6)
81002280:	8e230048 	lw	v1,72(s1)
81002284:	0282a023 	subu	s4,s4,v0
81002288:	02a2a821 	addu	s5,s5,v0
8100228c:	24020112 	li	v0,274
81002290:	1462ff8e 	bne	v1,v0,810020cc <LzmaDec_DecodeToDic+0x68>
81002294:	00000000 	nop
81002298:	8e250020 	lw	a1,32(s1)
8100229c:	14a00003 	bnez	a1,810022ac <LzmaDec_DecodeToDic+0x248>
810022a0:	8fa30004 	lw	v1,4(sp)
810022a4:	24020001 	li	v0,1
810022a8:	ac620000 	sw	v0,0(v1)
810022ac:	0005282b 	sltu	a1,zero,a1
810022b0:	8fbf002c 	lw	ra,44(sp)
810022b4:	8fbe0028 	lw	s8,40(sp)
810022b8:	8fb70024 	lw	s7,36(sp)
810022bc:	8fb60020 	lw	s6,32(sp)
810022c0:	8fb5001c 	lw	s5,28(sp)
810022c4:	8fb40018 	lw	s4,24(sp)
810022c8:	8fb30014 	lw	s3,20(sp)
810022cc:	8fb20010 	lw	s2,16(sp)
810022d0:	8fb1000c 	lw	s1,12(sp)
810022d4:	8fb00008 	lw	s0,8(sp)
810022d8:	00a01021 	move	v0,a1
810022dc:	03e00008 	jr	ra
810022e0:	27bd0030 	addiu	sp,sp,48
810022e4:	00c09021 	move	s2,a2
810022e8:	00009821 	move	s3,zero
810022ec:	1040000e 	beqz	v0,81002328 <LzmaDec_DecodeToDic+0x2c4>
810022f0:	00402821 	move	a1,v0
810022f4:	1280000c 	beqz	s4,81002328 <LzmaDec_DecodeToDic+0x2c4>
810022f8:	24050001 	li	a1,1
810022fc:	02751021 	addu	v0,s3,s5
81002300:	90440000 	lbu	a0,0(v0)
81002304:	02511821 	addu	v1,s2,s1
81002308:	26520001 	addiu	s2,s2,1
8100230c:	26730001 	addiu	s3,s3,1
81002310:	2e450014 	sltiu	a1,s2,20
81002314:	a064005c 	sb	a0,92(v1)
81002318:	10a00003 	beqz	a1,81002328 <LzmaDec_DecodeToDic+0x2c4>
8100231c:	0274102b 	sltu	v0,s3,s4
81002320:	1440fff7 	bnez	v0,81002300 <LzmaDec_DecodeToDic+0x29c>
81002324:	02751021 	addu	v0,s3,s5
81002328:	14a00003 	bnez	a1,81002338 <LzmaDec_DecodeToDic+0x2d4>
8100232c:	ae320058 	sw	s2,88(s1)
81002330:	12e0000c 	beqz	s7,81002364 <LzmaDec_DecodeToDic+0x300>
81002334:	2630005c 	addiu	s0,s1,92
81002338:	2630005c 	addiu	s0,s1,92
8100233c:	02202021 	move	a0,s1
81002340:	02002821 	move	a1,s0
81002344:	0c400618 	jal	81001860 <LzmaDec_TryDummy>
81002348:	02403021 	move	a2,s2
8100234c:	10400039 	beqz	v0,81002434 <LzmaDec_DecodeToDic+0x3d0>
81002350:	8fa30004 	lw	v1,4(sp)
81002354:	12e00003 	beqz	s7,81002364 <LzmaDec_DecodeToDic+0x300>
81002358:	24030002 	li	v1,2
8100235c:	14430019 	bne	v0,v1,810023c4 <LzmaDec_DecodeToDic+0x360>
81002360:	8fa20004 	lw	v0,4(sp)
81002364:	ae300018 	sw	s0,24(s1)
81002368:	02003021 	move	a2,s0
8100236c:	02202021 	move	a0,s1
81002370:	0c4001f0 	jal	810007c0 <LzmaDec_DecodeReal2>
81002374:	03c02821 	move	a1,s8
81002378:	14400010 	bnez	v0,810023bc <LzmaDec_DecodeToDic+0x358>
8100237c:	00000000 	nop
81002380:	8e220018 	lw	v0,24(s1)
81002384:	8ec30000 	lw	v1,0(s6)
81002388:	02221023 	subu	v0,s1,v0
8100238c:	02421021 	addu	v0,s2,v0
81002390:	02621023 	subu	v0,s3,v0
81002394:	2453ffa4 	addiu	s3,v0,-92
81002398:	00731821 	addu	v1,v1,s3
8100239c:	aec30000 	sw	v1,0(s6)
810023a0:	8e230048 	lw	v1,72(s1)
810023a4:	0293a023 	subu	s4,s4,s3
810023a8:	02b3a821 	addu	s5,s5,s3
810023ac:	084008a3 	j	8100228c <LzmaDec_DecodeToDic+0x228>
810023b0:	ae200058 	sw	zero,88(s1)
810023b4:	08400895 	j	81002254 <LzmaDec_DecodeToDic+0x1f0>
810023b8:	2446ffec 	addiu	a2,v0,-20
810023bc:	084008ac 	j	810022b0 <LzmaDec_DecodeToDic+0x24c>
810023c0:	24050001 	li	a1,1
810023c4:	24050001 	li	a1,1
810023c8:	084008ac 	j	810022b0 <LzmaDec_DecodeToDic+0x24c>
810023cc:	ac430000 	sw	v1,0(v0)
810023d0:	24040003 	li	a0,3
810023d4:	00002821 	move	a1,zero
810023d8:	084008ac 	j	810022b0 <LzmaDec_DecodeToDic+0x24c>
810023dc:	ac640000 	sw	a0,0(v1)
810023e0:	8fa40004 	lw	a0,4(sp)
810023e4:	24020002 	li	v0,2
810023e8:	24050001 	li	a1,1
810023ec:	084008ac 	j	810022b0 <LzmaDec_DecodeToDic+0x24c>
810023f0:	ac820000 	sw	v0,0(a0)
810023f4:	8fa30004 	lw	v1,4(sp)
810023f8:	00002821 	move	a1,zero
810023fc:	084008ac 	j	810022b0 <LzmaDec_DecodeToDic+0x24c>
81002400:	ac620000 	sw	v0,0(v1)
81002404:	2624005c 	addiu	a0,s1,92
81002408:	0c400154 	jal	81000550 <memcpy>
8100240c:	02803021 	move	a2,s4
81002410:	ae340058 	sw	s4,88(s1)
81002414:	8ec20000 	lw	v0,0(s6)
81002418:	8fa30004 	lw	v1,4(sp)
8100241c:	24040003 	li	a0,3
81002420:	00541021 	addu	v0,v0,s4
81002424:	00002821 	move	a1,zero
81002428:	ac640000 	sw	a0,0(v1)
8100242c:	084008ac 	j	810022b0 <LzmaDec_DecodeToDic+0x24c>
81002430:	aec20000 	sw	v0,0(s6)
81002434:	8ec20000 	lw	v0,0(s6)
81002438:	24040003 	li	a0,3
8100243c:	00531021 	addu	v0,v0,s3
81002440:	00002821 	move	a1,zero
81002444:	ac640000 	sw	a0,0(v1)
81002448:	084008ac 	j	810022b0 <LzmaDec_DecodeToDic+0x24c>
8100244c:	aec20000 	sw	v0,0(s6)
81002450:	8fa30004 	lw	v1,4(sp)
81002454:	00002821 	move	a1,zero
81002458:	084008ac 	j	810022b0 <LzmaDec_DecodeToDic+0x24c>
8100245c:	ac620000 	sw	v0,0(v1)

81002460 <LzmaDec_DecodeToBuf>:
81002460:	27bdffc8 	addiu	sp,sp,-56
81002464:	afbe0030 	sw	s8,48(sp)
81002468:	afb60028 	sw	s6,40(sp)
8100246c:	afb50024 	sw	s5,36(sp)
81002470:	afb20018 	sw	s2,24(sp)
81002474:	afbf0034 	sw	ra,52(sp)
81002478:	afb7002c 	sw	s7,44(sp)
8100247c:	afb40020 	sw	s4,32(sp)
81002480:	afb3001c 	sw	s3,28(sp)
81002484:	afb10014 	sw	s1,20(sp)
81002488:	afb00010 	sw	s0,16(sp)
8100248c:	8cd30000 	lw	s3,0(a2)
81002490:	8d140000 	lw	s4,0(t0)
81002494:	0100f021 	move	s8,t0
81002498:	00809021 	move	s2,a0
8100249c:	00a0b021 	move	s6,a1
810024a0:	00e0a821 	move	s5,a3
810024a4:	acc00000 	sw	zero,0(a2)
810024a8:	afa60004 	sw	a2,4(sp)
810024ac:	afa90008 	sw	t1,8(sp)
810024b0:	afaa000c 	sw	t2,12(sp)
810024b4:	08400953 	j	8100254c <LzmaDec_DecodeToBuf+0xec>
810024b8:	ad000000 	sw	zero,0(t0)
810024bc:	00511023 	subu	v0,v0,s1
810024c0:	0053102b 	sltu	v0,v0,s3
810024c4:	14400003 	bnez	v0,810024d4 <LzmaDec_DecodeToBuf+0x74>
810024c8:	8fa9000c 	lw	t1,12(sp)
810024cc:	8fa80008 	lw	t0,8(sp)
810024d0:	02338021 	addu	s0,s1,s3
810024d4:	02002821 	move	a1,s0
810024d8:	02a03021 	move	a2,s5
810024dc:	02402021 	move	a0,s2
810024e0:	0c400819 	jal	81002064 <LzmaDec_DecodeToDic>
810024e4:	03a03821 	move	a3,sp
810024e8:	0040b821 	move	s7,v0
810024ec:	8fa30000 	lw	v1,0(sp)
810024f0:	8fc20000 	lw	v0,0(s8)
810024f4:	8e450014 	lw	a1,20(s2)
810024f8:	02c02021 	move	a0,s6
810024fc:	00431021 	addu	v0,v0,v1
81002500:	afc20000 	sw	v0,0(s8)
81002504:	8e460024 	lw	a2,36(s2)
81002508:	00b12821 	addu	a1,a1,s1
8100250c:	02a3a821 	addu	s5,s5,v1
81002510:	00d18023 	subu	s0,a2,s1
81002514:	02003021 	move	a2,s0
81002518:	0c400154 	jal	81000550 <memcpy>
8100251c:	0283a023 	subu	s4,s4,v1
81002520:	8fa20004 	lw	v0,4(sp)
81002524:	02709823 	subu	s3,s3,s0
81002528:	02d0b021 	addu	s6,s6,s0
8100252c:	8c430000 	lw	v1,0(v0)
81002530:	00701821 	addu	v1,v1,s0
81002534:	16e0001a 	bnez	s7,810025a0 <LzmaDec_DecodeToBuf+0x140>
81002538:	ac430000 	sw	v1,0(v0)
8100253c:	1200000c 	beqz	s0,81002570 <LzmaDec_DecodeToBuf+0x110>
81002540:	00001021 	move	v0,zero
81002544:	1260000b 	beqz	s3,81002574 <LzmaDec_DecodeToBuf+0x114>
81002548:	8fbf0034 	lw	ra,52(sp)
8100254c:	8e420028 	lw	v0,40(s2)
81002550:	8e510024 	lw	s1,36(s2)
81002554:	00004021 	move	t0,zero
81002558:	afb40000 	sw	s4,0(sp)
8100255c:	1622ffd7 	bne	s1,v0,810024bc <LzmaDec_DecodeToBuf+0x5c>
81002560:	00408021 	move	s0,v0
81002564:	00008821 	move	s1,zero
81002568:	0840092f 	j	810024bc <LzmaDec_DecodeToBuf+0x5c>
8100256c:	ae400024 	sw	zero,36(s2)
81002570:	8fbf0034 	lw	ra,52(sp)
81002574:	8fbe0030 	lw	s8,48(sp)
81002578:	8fb7002c 	lw	s7,44(sp)
8100257c:	8fb60028 	lw	s6,40(sp)
81002580:	8fb50024 	lw	s5,36(sp)
81002584:	8fb40020 	lw	s4,32(sp)
81002588:	8fb3001c 	lw	s3,28(sp)
8100258c:	8fb20018 	lw	s2,24(sp)
81002590:	8fb10014 	lw	s1,20(sp)
81002594:	8fb00010 	lw	s0,16(sp)
81002598:	03e00008 	jr	ra
8100259c:	27bd0038 	addiu	sp,sp,56
810025a0:	02e01021 	move	v0,s7
810025a4:	8fbf0034 	lw	ra,52(sp)
810025a8:	8fbe0030 	lw	s8,48(sp)
810025ac:	8fb7002c 	lw	s7,44(sp)
810025b0:	8fb60028 	lw	s6,40(sp)
810025b4:	8fb50024 	lw	s5,36(sp)
810025b8:	8fb40020 	lw	s4,32(sp)
810025bc:	8fb3001c 	lw	s3,28(sp)
810025c0:	8fb20018 	lw	s2,24(sp)
810025c4:	8fb10014 	lw	s1,20(sp)
810025c8:	8fb00010 	lw	s0,16(sp)
810025cc:	03e00008 	jr	ra
810025d0:	27bd0038 	addiu	sp,sp,56

810025d4 <LzmaDec_FreeProbs>:
810025d4:	27bdfff8 	addiu	sp,sp,-8
810025d8:	afbf0004 	sw	ra,4(sp)
810025dc:	afb00000 	sw	s0,0(sp)
810025e0:	00808021 	move	s0,a0
810025e4:	8ca20004 	lw	v0,4(a1)
810025e8:	00a02021 	move	a0,a1
810025ec:	0040f809 	jalr	v0
810025f0:	8e050010 	lw	a1,16(s0)
810025f4:	ae000010 	sw	zero,16(s0)
810025f8:	8fbf0004 	lw	ra,4(sp)
810025fc:	8fb00000 	lw	s0,0(sp)
81002600:	03e00008 	jr	ra
81002604:	27bd0008 	addiu	sp,sp,8

81002608 <LzmaDec_FreeDict>:
81002608:	27bdfff8 	addiu	sp,sp,-8
8100260c:	afbf0004 	sw	ra,4(sp)
81002610:	afb00000 	sw	s0,0(sp)
81002614:	00808021 	move	s0,a0
81002618:	8ca20004 	lw	v0,4(a1)
8100261c:	00a02021 	move	a0,a1
81002620:	0040f809 	jalr	v0
81002624:	8e050014 	lw	a1,20(s0)
81002628:	ae000014 	sw	zero,20(s0)
8100262c:	8fbf0004 	lw	ra,4(sp)
81002630:	8fb00000 	lw	s0,0(sp)
81002634:	03e00008 	jr	ra
81002638:	27bd0008 	addiu	sp,sp,8

8100263c <LzmaDec_Free>:
8100263c:	27bdfff0 	addiu	sp,sp,-16
81002640:	afb10004 	sw	s1,4(sp)
81002644:	afb00000 	sw	s0,0(sp)
81002648:	00a08821 	move	s1,a1
8100264c:	afbf0008 	sw	ra,8(sp)
81002650:	0c400975 	jal	810025d4 <LzmaDec_FreeProbs>
81002654:	00808021 	move	s0,a0
81002658:	02002021 	move	a0,s0
8100265c:	0c400982 	jal	81002608 <LzmaDec_FreeDict>
81002660:	02202821 	move	a1,s1
81002664:	8fbf0008 	lw	ra,8(sp)
81002668:	8fb10004 	lw	s1,4(sp)
8100266c:	8fb00000 	lw	s0,0(sp)
81002670:	03e00008 	jr	ra
81002674:	27bd0010 	addiu	sp,sp,16

81002678 <LzmaProps_Decode>:
81002678:	2cc60005 	sltiu	a2,a2,5
8100267c:	00a03821 	move	a3,a1
81002680:	00804021 	move	t0,a0
81002684:	14c0002a 	bnez	a2,81002730 <LzmaProps_Decode+0xb8>
81002688:	24090004 	li	t1,4
8100268c:	90a30002 	lbu	v1,2(a1)
81002690:	90a20001 	lbu	v0,1(a1)
81002694:	90a40003 	lbu	a0,3(a1)
81002698:	90a50004 	lbu	a1,4(a1)
8100269c:	00031a00 	sll	v1,v1,0x8
810026a0:	00431025 	or	v0,v0,v1
810026a4:	00042400 	sll	a0,a0,0x10
810026a8:	00441025 	or	v0,v0,a0
810026ac:	00052e00 	sll	a1,a1,0x18
810026b0:	00451025 	or	v0,v0,a1
810026b4:	2c441000 	sltiu	a0,v0,4096
810026b8:	24031000 	li	v1,4096
810026bc:	0064100b 	movn	v0,v1,a0
810026c0:	ad02000c 	sw	v0,12(t0)
810026c4:	90e50000 	lbu	a1,0(a3)
810026c8:	2ca200e1 	sltiu	v0,a1,225
810026cc:	10400018 	beqz	v0,81002730 <LzmaProps_Decode+0xb8>
810026d0:	3c03cccc 	lui	v1,0xcccc
810026d4:	3c0238e3 	lui	v0,0x38e3
810026d8:	34428e39 	ori	v0,v0,0x8e39
810026dc:	00a20019 	multu	a1,v0
810026e0:	3463cccd 	ori	v1,v1,0xcccd
810026e4:	00004821 	move	t1,zero
810026e8:	00001010 	mfhi	v0
810026ec:	00021042 	srl	v0,v0,0x1
810026f0:	000220c0 	sll	a0,v0,0x3
810026f4:	00822021 	addu	a0,a0,v0
810026f8:	00a42023 	subu	a0,a1,a0
810026fc:	304500ff 	andi	a1,v0,0xff
81002700:	00a30019 	multu	a1,v1
81002704:	308400ff 	andi	a0,a0,0xff
81002708:	ad040000 	sw	a0,0(t0)
8100270c:	00001810 	mfhi	v1
81002710:	00031882 	srl	v1,v1,0x2
81002714:	00031080 	sll	v0,v1,0x2
81002718:	00431021 	addu	v0,v0,v1
8100271c:	00a21023 	subu	v0,a1,v0
81002720:	304200ff 	andi	v0,v0,0xff
81002724:	306300ff 	andi	v1,v1,0xff
81002728:	ad020004 	sw	v0,4(t0)
8100272c:	ad030008 	sw	v1,8(t0)
81002730:	03e00008 	jr	ra
81002734:	01201021 	move	v0,t1

81002738 <LzmaDec_AllocateProbs2>:
81002738:	27bdfff0 	addiu	sp,sp,-16
8100273c:	afb20008 	sw	s2,8(sp)
81002740:	afb10004 	sw	s1,4(sp)
81002744:	afb00000 	sw	s0,0(sp)
81002748:	afbf000c 	sw	ra,12(sp)
8100274c:	8ca70004 	lw	a3,4(a1)
81002750:	8ca30000 	lw	v1,0(a1)
81002754:	8c880010 	lw	t0,16(a0)
81002758:	24020300 	li	v0,768
8100275c:	00671821 	addu	v1,v1,a3
81002760:	00621004 	sllv	v0,v0,v1
81002764:	00809021 	move	s2,a0
81002768:	00c08021 	move	s0,a2
8100276c:	00c02821 	move	a1,a2
81002770:	11000004 	beqz	t0,81002784 <LzmaDec_AllocateProbs2+0x4c>
81002774:	24510736 	addiu	s1,v0,1846
81002778:	8c820054 	lw	v0,84(a0)
8100277c:	1051000c 	beq	v0,s1,810027b0 <LzmaDec_AllocateProbs2+0x78>
81002780:	00001821 	move	v1,zero
81002784:	0c400975 	jal	810025d4 <LzmaDec_FreeProbs>
81002788:	00000000 	nop
8100278c:	8e020000 	lw	v0,0(s0)
81002790:	02002021 	move	a0,s0
81002794:	0040f809 	jalr	v0
81002798:	00112840 	sll	a1,s1,0x1
8100279c:	ae420010 	sw	v0,16(s2)
810027a0:	ae510054 	sw	s1,84(s2)
810027a4:	10400002 	beqz	v0,810027b0 <LzmaDec_AllocateProbs2+0x78>
810027a8:	24030002 	li	v1,2
810027ac:	00001821 	move	v1,zero
810027b0:	8fbf000c 	lw	ra,12(sp)
810027b4:	8fb20008 	lw	s2,8(sp)
810027b8:	8fb10004 	lw	s1,4(sp)
810027bc:	8fb00000 	lw	s0,0(sp)
810027c0:	00601021 	move	v0,v1
810027c4:	03e00008 	jr	ra
810027c8:	27bd0010 	addiu	sp,sp,16

810027cc <LzmaDec_AllocateProbs>:
810027cc:	27bdffe0 	addiu	sp,sp,-32
810027d0:	afb10014 	sw	s1,20(sp)
810027d4:	00808821 	move	s1,a0
810027d8:	03a02021 	move	a0,sp
810027dc:	afb00010 	sw	s0,16(sp)
810027e0:	afbf0018 	sw	ra,24(sp)
810027e4:	0c40099e 	jal	81002678 <LzmaProps_Decode>
810027e8:	00e08021 	move	s0,a3
810027ec:	00401821 	move	v1,v0
810027f0:	02003021 	move	a2,s0
810027f4:	02202021 	move	a0,s1
810027f8:	10400007 	beqz	v0,81002818 <LzmaDec_AllocateProbs+0x4c>
810027fc:	03a02821 	move	a1,sp
81002800:	8fbf0018 	lw	ra,24(sp)
81002804:	8fb10014 	lw	s1,20(sp)
81002808:	8fb00010 	lw	s0,16(sp)
8100280c:	00601021 	move	v0,v1
81002810:	03e00008 	jr	ra
81002814:	27bd0020 	addiu	sp,sp,32
81002818:	0c4009ce 	jal	81002738 <LzmaDec_AllocateProbs2>
8100281c:	00000000 	nop
81002820:	1440fff7 	bnez	v0,81002800 <LzmaDec_AllocateProbs+0x34>
81002824:	00401821 	move	v1,v0
81002828:	8fa3000c 	lw	v1,12(sp)
8100282c:	8fa20000 	lw	v0,0(sp)
81002830:	8fa40004 	lw	a0,4(sp)
81002834:	8fa50008 	lw	a1,8(sp)
81002838:	8fbf0018 	lw	ra,24(sp)
8100283c:	ae220000 	sw	v0,0(s1)
81002840:	ae23000c 	sw	v1,12(s1)
81002844:	ae240004 	sw	a0,4(s1)
81002848:	ae250008 	sw	a1,8(s1)
8100284c:	8fb00010 	lw	s0,16(sp)
81002850:	8fb10014 	lw	s1,20(sp)
81002854:	00001821 	move	v1,zero
81002858:	00601021 	move	v0,v1
8100285c:	03e00008 	jr	ra
81002860:	27bd0020 	addiu	sp,sp,32

81002864 <LzmaDec_Allocate>:
81002864:	27bdffe0 	addiu	sp,sp,-32
81002868:	afb00010 	sw	s0,16(sp)
8100286c:	00808021 	move	s0,a0
81002870:	03a02021 	move	a0,sp
81002874:	afb10014 	sw	s1,20(sp)
81002878:	afbf001c 	sw	ra,28(sp)
8100287c:	00e08821 	move	s1,a3
81002880:	0c40099e 	jal	81002678 <LzmaProps_Decode>
81002884:	afb20018 	sw	s2,24(sp)
81002888:	00401821 	move	v1,v0
8100288c:	02203021 	move	a2,s1
81002890:	02002021 	move	a0,s0
81002894:	10400008 	beqz	v0,810028b8 <LzmaDec_Allocate+0x54>
81002898:	03a02821 	move	a1,sp
8100289c:	8fbf001c 	lw	ra,28(sp)
810028a0:	8fb20018 	lw	s2,24(sp)
810028a4:	8fb10014 	lw	s1,20(sp)
810028a8:	8fb00010 	lw	s0,16(sp)
810028ac:	00601021 	move	v0,v1
810028b0:	03e00008 	jr	ra
810028b4:	27bd0020 	addiu	sp,sp,32
810028b8:	0c4009ce 	jal	81002738 <LzmaDec_AllocateProbs2>
810028bc:	00000000 	nop
810028c0:	1440fff6 	bnez	v0,8100289c <LzmaDec_Allocate+0x38>
810028c4:	00401821 	move	v1,v0
810028c8:	8e020014 	lw	v0,20(s0)
810028cc:	02002021 	move	a0,s0
810028d0:	02202821 	move	a1,s1
810028d4:	10400004 	beqz	v0,810028e8 <LzmaDec_Allocate+0x84>
810028d8:	8fb2000c 	lw	s2,12(sp)
810028dc:	8e020028 	lw	v0,40(s0)
810028e0:	1052000c 	beq	v0,s2,81002914 <LzmaDec_Allocate+0xb0>
810028e4:	8fa30000 	lw	v1,0(sp)
810028e8:	0c400982 	jal	81002608 <LzmaDec_FreeDict>
810028ec:	00000000 	nop
810028f0:	8e220000 	lw	v0,0(s1)
810028f4:	02202021 	move	a0,s1
810028f8:	0040f809 	jalr	v0
810028fc:	02402821 	move	a1,s2
81002900:	ae020014 	sw	v0,20(s0)
81002904:	02002021 	move	a0,s0
81002908:	10400012 	beqz	v0,81002954 <LzmaDec_Allocate+0xf0>
8100290c:	02202821 	move	a1,s1
81002910:	8fa30000 	lw	v1,0(sp)
81002914:	8fa2000c 	lw	v0,12(sp)
81002918:	8fa40004 	lw	a0,4(sp)
8100291c:	8fa50008 	lw	a1,8(sp)
81002920:	8fbf001c 	lw	ra,28(sp)
81002924:	ae120028 	sw	s2,40(s0)
81002928:	ae030000 	sw	v1,0(s0)
8100292c:	ae02000c 	sw	v0,12(s0)
81002930:	ae040004 	sw	a0,4(s0)
81002934:	ae050008 	sw	a1,8(s0)
81002938:	8fb20018 	lw	s2,24(sp)
8100293c:	8fb10014 	lw	s1,20(sp)
81002940:	8fb00010 	lw	s0,16(sp)
81002944:	00001821 	move	v1,zero
81002948:	00601021 	move	v0,v1
8100294c:	03e00008 	jr	ra
81002950:	27bd0020 	addiu	sp,sp,32
81002954:	0c400975 	jal	810025d4 <LzmaDec_FreeProbs>
81002958:	00000000 	nop
8100295c:	08400a27 	j	8100289c <LzmaDec_Allocate+0x38>
81002960:	24030002 	li	v1,2

81002964 <LzmaDecode>:
81002964:	27bdff60 	addiu	sp,sp,-160
81002968:	afbe0098 	sw	s8,152(sp)
8100296c:	afb70094 	sw	s7,148(sp)
81002970:	afb60090 	sw	s6,144(sp)
81002974:	afb5008c 	sw	s5,140(sp)
81002978:	afb20080 	sw	s2,128(sp)
8100297c:	afb1007c 	sw	s1,124(sp)
81002980:	afbf009c 	sw	ra,156(sp)
81002984:	afb40088 	sw	s4,136(sp)
81002988:	afb30084 	sw	s3,132(sp)
8100298c:	afb00078 	sw	s0,120(sp)
81002990:	8cf40000 	lw	s4,0(a3)
81002994:	00a09021 	move	s2,a1
81002998:	8e530000 	lw	s3,0(s2)
8100299c:	2e820005 	sltiu	v0,s4,5
810029a0:	0080a821 	move	s5,a0
810029a4:	00c0b021 	move	s6,a2
810029a8:	ae400000 	sw	zero,0(s2)
810029ac:	00e08821 	move	s1,a3
810029b0:	afab0070 	sw	t3,112(sp)
810029b4:	0140f021 	move	s8,t2
810029b8:	01002821 	move	a1,t0
810029bc:	03a02021 	move	a0,sp
810029c0:	01203021 	move	a2,t1
810029c4:	ace00000 	sw	zero,0(a3)
810029c8:	8fb700a0 	lw	s7,160(sp)
810029cc:	14400008 	bnez	v0,810029f0 <LzmaDecode+0x8c>
810029d0:	24030006 	li	v1,6
810029d4:	02e03821 	move	a3,s7
810029d8:	afa00014 	sw	zero,20(sp)
810029dc:	0c4009f3 	jal	810027cc <LzmaDec_AllocateProbs>
810029e0:	afa00010 	sw	zero,16(sp)
810029e4:	00401821 	move	v1,v0
810029e8:	1040000e 	beqz	v0,81002a24 <LzmaDecode+0xc0>
810029ec:	03a02021 	move	a0,sp
810029f0:	8fbf009c 	lw	ra,156(sp)
810029f4:	8fbe0098 	lw	s8,152(sp)
810029f8:	8fb70094 	lw	s7,148(sp)
810029fc:	8fb60090 	lw	s6,144(sp)
81002a00:	8fb5008c 	lw	s5,140(sp)
81002a04:	8fb40088 	lw	s4,136(sp)
81002a08:	8fb30084 	lw	s3,132(sp)
81002a0c:	8fb20080 	lw	s2,128(sp)
81002a10:	8fb1007c 	lw	s1,124(sp)
81002a14:	8fb00078 	lw	s0,120(sp)
81002a18:	00601021 	move	v0,v1
81002a1c:	03e00008 	jr	ra
81002a20:	27bd00a0 	addiu	sp,sp,160
81002a24:	afb50014 	sw	s5,20(sp)
81002a28:	0c400810 	jal	81002040 <LzmaDec_Init>
81002a2c:	afb30028 	sw	s3,40(sp)
81002a30:	8fa90070 	lw	t1,112(sp)
81002a34:	02602821 	move	a1,s3
81002a38:	03a02021 	move	a0,sp
81002a3c:	ae340000 	sw	s4,0(s1)
81002a40:	02c03021 	move	a2,s6
81002a44:	02203821 	move	a3,s1
81002a48:	0c400819 	jal	81002064 <LzmaDec_DecodeToDic>
81002a4c:	03c04021 	move	t0,s8
81002a50:	00408021 	move	s0,v0
81002a54:	8fa30024 	lw	v1,36(sp)
81002a58:	02e02821 	move	a1,s7
81002a5c:	14400006 	bnez	v0,81002a78 <LzmaDecode+0x114>
81002a60:	03a02021 	move	a0,sp
81002a64:	8fa60070 	lw	a2,112(sp)
81002a68:	24100006 	li	s0,6
81002a6c:	8cc20000 	lw	v0,0(a2)
81002a70:	38420003 	xori	v0,v0,0x3
81002a74:	0002800b 	movn	s0,zero,v0
81002a78:	0c400975 	jal	810025d4 <LzmaDec_FreeProbs>
81002a7c:	ae430000 	sw	v1,0(s2)
81002a80:	02001821 	move	v1,s0
81002a84:	8fbf009c 	lw	ra,156(sp)
81002a88:	8fbe0098 	lw	s8,152(sp)
81002a8c:	8fb70094 	lw	s7,148(sp)
81002a90:	8fb60090 	lw	s6,144(sp)
81002a94:	8fb5008c 	lw	s5,140(sp)
81002a98:	8fb40088 	lw	s4,136(sp)
81002a9c:	8fb30084 	lw	s3,132(sp)
81002aa0:	8fb20080 	lw	s2,128(sp)
81002aa4:	8fb1007c 	lw	s1,124(sp)
81002aa8:	8fb00078 	lw	s0,120(sp)
81002aac:	00601021 	move	v0,v1
81002ab0:	03e00008 	jr	ra
81002ab4:	27bd00a0 	addiu	sp,sp,160
81002ab8:	81000534 	lb	zero,1332(t0)
81002abc:	81000548 	lb	zero,1352(t0)
81002ac0:	5a4c0a0d 	0x5a4c0a0d
81002ac4:	4420414d 	0x4420414d
81002ac8:	6d6f6365 	0x6d6f6365
81002acc:	73657270 	0x73657270
81002ad0:	6e6f6973 	0x6e6f6973
81002ad4:	002e2e2e 	0x2e2e2e
81002ad8:	0a0d6b6f 	j	8835adbc <alloc_buf+0x70464c8>
81002adc:	00000000 	nop
81002ae0:	6c696166 	0x6c696166
81002ae4:	00000a0d 	break	0x0,0x28

81002ae8 <kLiteralNextStates>:
81002ae8:	00000000 04030201 05040605 07070707     ................
81002af8:	0a070707 0a0a0a0a 00ffffff 00000000     ................
	...
