In archive libgcc_eh.a:

unwind-dw2.o:     file format elf32-tradlittlemips

Disassembly of section .text:

00000000 <read_sleb128>:
       0:	00003821 	move	a3,zero
       4:	00004021 	move	t0,zero
       8:	90860000 	lbu	a2,0(a0)
       c:	24840001 	addiu	a0,a0,1
      10:	30c2007f 	andi	v0,a2,0x7f
      14:	00e21004 	sllv	v0,v0,a3
      18:	7c061c20 	seb	v1,a2
      1c:	01024025 	or	t0,t0,v0
      20:	0460fff9 	bltz	v1,8 <read_sleb128+0x8>
      24:	24e70007 	addiu	a3,a3,7
      28:	2ce20020 	sltiu	v0,a3,32
      2c:	10400007 	beqz	v0,4c <read_sleb128+0x4c>
      30:	00000000 	nop
      34:	30c20040 	andi	v0,a2,0x40
      38:	10400004 	beqz	v0,4c <read_sleb128+0x4c>
      3c:	00000000 	nop
      40:	2402ffff 	li	v0,-1
      44:	00e21004 	sllv	v0,v0,a3
      48:	00484025 	or	t0,v0,t0
      4c:	aca80000 	sw	t0,0(a1)
      50:	03e00008 	jr	ra
      54:	00801021 	move	v0,a0

00000058 <_Unwind_GetCFA>:
      58:	03e00008 	jr	ra
      5c:	8c8202f4 	lw	v0,756(a0)

00000060 <_Unwind_GetIP>:
      60:	03e00008 	jr	ra
      64:	8c8202f8 	lw	v0,760(a0)

00000068 <_Unwind_GetIPInfo>:
      68:	8c83030c 	lw	v1,780(a0)
      6c:	8c8202f8 	lw	v0,760(a0)
      70:	00031fc2 	srl	v1,v1,0x1f
      74:	03e00008 	jr	ra
      78:	aca30000 	sw	v1,0(a1)

0000007c <_Unwind_SetIP>:
      7c:	03e00008 	jr	ra
      80:	ac8502f8 	sw	a1,760(a0)

00000084 <_Unwind_GetLanguageSpecificData>:
      84:	03e00008 	jr	ra
      88:	8c8202fc 	lw	v0,764(a0)

0000008c <_Unwind_GetRegionStart>:
      8c:	03e00008 	jr	ra
      90:	8c820308 	lw	v0,776(a0)

00000094 <_Unwind_GetDataRelBase>:
      94:	03e00008 	jr	ra
      98:	8c820304 	lw	v0,772(a0)

0000009c <_Unwind_GetTextRelBase>:
      9c:	03e00008 	jr	ra
      a0:	8c820300 	lw	v0,768(a0)

000000a4 <_Unwind_DeleteException>:
      a4:	8c990008 	lw	t9,8(a0)
      a8:	13200003 	beqz	t9,b8 <_Unwind_DeleteException+0x14>
      ac:	00802821 	move	a1,a0
      b0:	03200008 	jr	t9
      b4:	24040001 	li	a0,1
      b8:	03e00008 	jr	ra
      bc:	00000000 	nop

000000c0 <_Unwind_SetGR>:
      c0:	3c1c0000 	lui	gp,0x0
      c4:	279c0000 	addiu	gp,gp,0
      c8:	0399e021 	addu	gp,gp,t9
      cc:	27bdffe0 	addiu	sp,sp,-32
      d0:	afbf001c 	sw	ra,28(sp)
      d4:	afbc0010 	sw	gp,16(sp)
      d8:	28a200bd 	slti	v0,a1,189
      dc:	10400015 	beqz	v0,134 <_Unwind_SetGR+0x74>
      e0:	8f820000 	lw	v0,0(gp)
      e4:	8c83030c 	lw	v1,780(a0)
      e8:	24420004 	addiu	v0,v0,4
      ec:	00a21021 	addu	v0,a1,v0
      f0:	7c630780 	ext	v1,v1,0x1e,0x1
      f4:	1060000a 	beqz	v1,120 <_Unwind_SetGR+0x60>
      f8:	90470000 	lbu	a3,0(v0)
      fc:	00851021 	addu	v0,a0,a1
     100:	80430318 	lb	v1,792(v0)
     104:	10600007 	beqz	v1,124 <_Unwind_SetGR+0x64>
     108:	00051080 	sll	v0,a1,0x2
     10c:	00821021 	addu	v0,a0,v0
     110:	ac460000 	sw	a2,0(v0)
     114:	8fbf001c 	lw	ra,28(sp)
     118:	03e00008 	jr	ra
     11c:	27bd0020 	addiu	sp,sp,32
     120:	00051080 	sll	v0,a1,0x2
     124:	00821021 	addu	v0,a0,v0
     128:	24030004 	li	v1,4
     12c:	10e30004 	beq	a3,v1,140 <_Unwind_SetGR+0x80>
     130:	8c420000 	lw	v0,0(v0)
     134:	8f990000 	lw	t9,0(gp)
     138:	0320f809 	jalr	t9
     13c:	00000000 	nop
     140:	ac460000 	sw	a2,0(v0)
     144:	8fbf001c 	lw	ra,28(sp)
     148:	03e00008 	jr	ra
     14c:	27bd0020 	addiu	sp,sp,32

00000150 <_Unwind_GetGR>:
     150:	3c1c0000 	lui	gp,0x0
     154:	279c0000 	addiu	gp,gp,0
     158:	0399e021 	addu	gp,gp,t9
     15c:	27bdffe0 	addiu	sp,sp,-32
     160:	afbf001c 	sw	ra,28(sp)
     164:	afbc0010 	sw	gp,16(sp)
     168:	28a200bd 	slti	v0,a1,189
     16c:	10400015 	beqz	v0,1c4 <_Unwind_GetGR+0x74>
     170:	00803021 	move	a2,a0
     174:	8f820000 	lw	v0,0(gp)
     178:	8c84030c 	lw	a0,780(a0)
     17c:	00051880 	sll	v1,a1,0x2
     180:	24420004 	addiu	v0,v0,4
     184:	00a21021 	addu	v0,a1,v0
     188:	00c31821 	addu	v1,a2,v1
     18c:	7c840780 	ext	a0,a0,0x1e,0x1
     190:	90470000 	lbu	a3,0(v0)
     194:	10800008 	beqz	a0,1b8 <_Unwind_GetGR+0x68>
     198:	8c680000 	lw	t0,0(v1)
     19c:	00c51021 	addu	v0,a2,a1
     1a0:	80430318 	lb	v1,792(v0)
     1a4:	10600004 	beqz	v1,1b8 <_Unwind_GetGR+0x68>
     1a8:	01001021 	move	v0,t0
     1ac:	8fbf001c 	lw	ra,28(sp)
     1b0:	03e00008 	jr	ra
     1b4:	27bd0020 	addiu	sp,sp,32
     1b8:	24020004 	li	v0,4
     1bc:	10e20004 	beq	a3,v0,1d0 <_Unwind_GetGR+0x80>
     1c0:	8fbf001c 	lw	ra,28(sp)
     1c4:	8f990000 	lw	t9,0(gp)
     1c8:	0320f809 	jalr	t9
     1cc:	00000000 	nop
     1d0:	8d020000 	lw	v0,0(t0)
     1d4:	03e00008 	jr	ra
     1d8:	27bd0020 	addiu	sp,sp,32

000001dc <_Unwind_SetSpColumn>:
     1dc:	3c1c0000 	lui	gp,0x0
     1e0:	279c0000 	addiu	gp,gp,0
     1e4:	0399e021 	addu	gp,gp,t9
     1e8:	27bdffe0 	addiu	sp,sp,-32
     1ec:	afbf001c 	sw	ra,28(sp)
     1f0:	afbc0010 	sw	gp,16(sp)
     1f4:	8f820000 	lw	v0,0(gp)
     1f8:	90430021 	lbu	v1,33(v0)
     1fc:	24020004 	li	v0,4
     200:	10620003 	beq	v1,v0,210 <_Unwind_SetSpColumn+0x34>
     204:	8f990000 	lw	t9,0(gp)
     208:	0320f809 	jalr	t9
     20c:	00000000 	nop
     210:	acc50000 	sw	a1,0(a2)
     214:	8c82030c 	lw	v0,780(a0)
     218:	7c420780 	ext	v0,v0,0x1e,0x1
     21c:	10400003 	beqz	v0,22c <_Unwind_SetSpColumn+0x50>
     220:	8fbf001c 	lw	ra,28(sp)
     224:	a0800335 	sb	zero,821(a0)
     228:	8fbf001c 	lw	ra,28(sp)
     22c:	ac860074 	sw	a2,116(a0)
     230:	03e00008 	jr	ra
     234:	27bd0020 	addiu	sp,sp,32

00000238 <init_dwarf_reg_size_table>:
     238:	3c1c0000 	lui	gp,0x0
     23c:	279c0000 	addiu	gp,gp,0
     240:	0399e021 	addu	gp,gp,t9
     244:	8f830000 	lw	v1,0(gp)
     248:	24020004 	li	v0,4
     24c:	8f840000 	lw	a0,0(gp)
     250:	a0620004 	sb	v0,4(v1)
     254:	8f830000 	lw	v1,0(gp)
     258:	a0820005 	sb	v0,5(a0)
     25c:	8f840000 	lw	a0,0(gp)
     260:	a0620006 	sb	v0,6(v1)
     264:	8f830000 	lw	v1,0(gp)
     268:	a0820007 	sb	v0,7(a0)
     26c:	8f840000 	lw	a0,0(gp)
     270:	a0620008 	sb	v0,8(v1)
     274:	8f830000 	lw	v1,0(gp)
     278:	a0820009 	sb	v0,9(a0)
     27c:	8f840000 	lw	a0,0(gp)
     280:	a062000a 	sb	v0,10(v1)
     284:	8f830000 	lw	v1,0(gp)
     288:	a082000b 	sb	v0,11(a0)
     28c:	8f840000 	lw	a0,0(gp)
     290:	a062000c 	sb	v0,12(v1)
     294:	8f830000 	lw	v1,0(gp)
     298:	a082000d 	sb	v0,13(a0)
     29c:	8f840000 	lw	a0,0(gp)
     2a0:	a062000e 	sb	v0,14(v1)
     2a4:	8f830000 	lw	v1,0(gp)
     2a8:	a082000f 	sb	v0,15(a0)
     2ac:	8f840000 	lw	a0,0(gp)
     2b0:	a0620010 	sb	v0,16(v1)
     2b4:	8f830000 	lw	v1,0(gp)
     2b8:	a0820011 	sb	v0,17(a0)
     2bc:	8f840000 	lw	a0,0(gp)
     2c0:	a0620012 	sb	v0,18(v1)
     2c4:	8f830000 	lw	v1,0(gp)
     2c8:	a0820013 	sb	v0,19(a0)
     2cc:	8f840000 	lw	a0,0(gp)
     2d0:	a0620014 	sb	v0,20(v1)
     2d4:	8f830000 	lw	v1,0(gp)
     2d8:	a0820015 	sb	v0,21(a0)
     2dc:	8f840000 	lw	a0,0(gp)
     2e0:	a0620016 	sb	v0,22(v1)
     2e4:	8f830000 	lw	v1,0(gp)
     2e8:	a0820017 	sb	v0,23(a0)
     2ec:	8f840000 	lw	a0,0(gp)
     2f0:	a0620018 	sb	v0,24(v1)
     2f4:	8f830000 	lw	v1,0(gp)
     2f8:	a0820019 	sb	v0,25(a0)
     2fc:	8f840000 	lw	a0,0(gp)
     300:	a062001a 	sb	v0,26(v1)
     304:	8f830000 	lw	v1,0(gp)
     308:	a082001b 	sb	v0,27(a0)
     30c:	8f840000 	lw	a0,0(gp)
     310:	a062001c 	sb	v0,28(v1)
     314:	8f830000 	lw	v1,0(gp)
     318:	a082001d 	sb	v0,29(a0)
     31c:	8f840000 	lw	a0,0(gp)
     320:	a062001e 	sb	v0,30(v1)
     324:	8f830000 	lw	v1,0(gp)
     328:	a082001f 	sb	v0,31(a0)
     32c:	8f840000 	lw	a0,0(gp)
     330:	a0620020 	sb	v0,32(v1)
     334:	8f830000 	lw	v1,0(gp)
     338:	a0820021 	sb	v0,33(a0)
     33c:	8f840000 	lw	a0,0(gp)
     340:	a0620022 	sb	v0,34(v1)
     344:	8f830000 	lw	v1,0(gp)
     348:	a0820023 	sb	v0,35(a0)
     34c:	8f840000 	lw	a0,0(gp)
     350:	a0620024 	sb	v0,36(v1)
     354:	8f830000 	lw	v1,0(gp)
     358:	a0820025 	sb	v0,37(a0)
     35c:	8f840000 	lw	a0,0(gp)
     360:	a0620026 	sb	v0,38(v1)
     364:	8f830000 	lw	v1,0(gp)
     368:	a0820027 	sb	v0,39(a0)
     36c:	8f840000 	lw	a0,0(gp)
     370:	a0620028 	sb	v0,40(v1)
     374:	8f830000 	lw	v1,0(gp)
     378:	a0820029 	sb	v0,41(a0)
     37c:	8f840000 	lw	a0,0(gp)
     380:	a062002a 	sb	v0,42(v1)
     384:	8f830000 	lw	v1,0(gp)
     388:	a082002b 	sb	v0,43(a0)
     38c:	8f840000 	lw	a0,0(gp)
     390:	a062002c 	sb	v0,44(v1)
     394:	8f830000 	lw	v1,0(gp)
     398:	a082002d 	sb	v0,45(a0)
     39c:	8f840000 	lw	a0,0(gp)
     3a0:	a062002e 	sb	v0,46(v1)
     3a4:	8f830000 	lw	v1,0(gp)
     3a8:	a082002f 	sb	v0,47(a0)
     3ac:	8f840000 	lw	a0,0(gp)
     3b0:	a0620030 	sb	v0,48(v1)
     3b4:	8f830000 	lw	v1,0(gp)
     3b8:	a0820031 	sb	v0,49(a0)
     3bc:	8f840000 	lw	a0,0(gp)
     3c0:	a0620032 	sb	v0,50(v1)
     3c4:	8f830000 	lw	v1,0(gp)
     3c8:	a0820033 	sb	v0,51(a0)
     3cc:	8f840000 	lw	a0,0(gp)
     3d0:	a0620034 	sb	v0,52(v1)
     3d4:	8f830000 	lw	v1,0(gp)
     3d8:	a0820035 	sb	v0,53(a0)
     3dc:	8f840000 	lw	a0,0(gp)
     3e0:	a0620036 	sb	v0,54(v1)
     3e4:	8f830000 	lw	v1,0(gp)
     3e8:	a0820037 	sb	v0,55(a0)
     3ec:	8f840000 	lw	a0,0(gp)
     3f0:	a0620038 	sb	v0,56(v1)
     3f4:	8f830000 	lw	v1,0(gp)
     3f8:	a0820039 	sb	v0,57(a0)
     3fc:	8f840000 	lw	a0,0(gp)
     400:	a062003a 	sb	v0,58(v1)
     404:	8f830000 	lw	v1,0(gp)
     408:	a082003b 	sb	v0,59(a0)
     40c:	8f840000 	lw	a0,0(gp)
     410:	a062003c 	sb	v0,60(v1)
     414:	8f830000 	lw	v1,0(gp)
     418:	a082003d 	sb	v0,61(a0)
     41c:	8f840000 	lw	a0,0(gp)
     420:	a062003e 	sb	v0,62(v1)
     424:	8f830000 	lw	v1,0(gp)
     428:	a082003f 	sb	v0,63(a0)
     42c:	8f840000 	lw	a0,0(gp)
     430:	a0620040 	sb	v0,64(v1)
     434:	8f830000 	lw	v1,0(gp)
     438:	a0820041 	sb	v0,65(a0)
     43c:	8f840000 	lw	a0,0(gp)
     440:	a0620042 	sb	v0,66(v1)
     444:	8f830000 	lw	v1,0(gp)
     448:	a0820043 	sb	v0,67(a0)
     44c:	8f840000 	lw	a0,0(gp)
     450:	a0620045 	sb	v0,69(v1)
     454:	8f830000 	lw	v1,0(gp)
     458:	a0820044 	sb	v0,68(a0)
     45c:	8f840000 	lw	a0,0(gp)
     460:	a0620054 	sb	v0,84(v1)
     464:	8f830000 	lw	v1,0(gp)
     468:	a0820055 	sb	v0,85(a0)
     46c:	8f840000 	lw	a0,0(gp)
     470:	a0620056 	sb	v0,86(v1)
     474:	8f830000 	lw	v1,0(gp)
     478:	a0820057 	sb	v0,87(a0)
     47c:	8f840000 	lw	a0,0(gp)
     480:	a0620058 	sb	v0,88(v1)
     484:	8f830000 	lw	v1,0(gp)
     488:	a0820059 	sb	v0,89(a0)
     48c:	8f840000 	lw	a0,0(gp)
     490:	a062005a 	sb	v0,90(v1)
     494:	8f830000 	lw	v1,0(gp)
     498:	a082005b 	sb	v0,91(a0)
     49c:	8f840000 	lw	a0,0(gp)
     4a0:	a062005c 	sb	v0,92(v1)
     4a4:	8f830000 	lw	v1,0(gp)
     4a8:	a082005d 	sb	v0,93(a0)
     4ac:	8f840000 	lw	a0,0(gp)
     4b0:	a062005e 	sb	v0,94(v1)
     4b4:	8f830000 	lw	v1,0(gp)
     4b8:	a082005f 	sb	v0,95(a0)
     4bc:	8f840000 	lw	a0,0(gp)
     4c0:	a0620060 	sb	v0,96(v1)
     4c4:	8f830000 	lw	v1,0(gp)
     4c8:	a0820061 	sb	v0,97(a0)
     4cc:	8f840000 	lw	a0,0(gp)
     4d0:	a0620062 	sb	v0,98(v1)
     4d4:	8f830000 	lw	v1,0(gp)
     4d8:	a0820063 	sb	v0,99(a0)
     4dc:	8f840000 	lw	a0,0(gp)
     4e0:	a0620064 	sb	v0,100(v1)
     4e4:	8f830000 	lw	v1,0(gp)
     4e8:	a0820065 	sb	v0,101(a0)
     4ec:	8f840000 	lw	a0,0(gp)
     4f0:	a0620066 	sb	v0,102(v1)
     4f4:	8f830000 	lw	v1,0(gp)
     4f8:	a0820067 	sb	v0,103(a0)
     4fc:	8f840000 	lw	a0,0(gp)
     500:	a0620068 	sb	v0,104(v1)
     504:	8f830000 	lw	v1,0(gp)
     508:	a0820069 	sb	v0,105(a0)
     50c:	8f840000 	lw	a0,0(gp)
     510:	a062006a 	sb	v0,106(v1)
     514:	8f830000 	lw	v1,0(gp)
     518:	a082006b 	sb	v0,107(a0)
     51c:	8f840000 	lw	a0,0(gp)
     520:	a062006c 	sb	v0,108(v1)
     524:	8f830000 	lw	v1,0(gp)
     528:	a082006d 	sb	v0,109(a0)
     52c:	8f840000 	lw	a0,0(gp)
     530:	a062006e 	sb	v0,110(v1)
     534:	8f830000 	lw	v1,0(gp)
     538:	a082006f 	sb	v0,111(a0)
     53c:	8f840000 	lw	a0,0(gp)
     540:	a0620070 	sb	v0,112(v1)
     544:	8f830000 	lw	v1,0(gp)
     548:	a0820071 	sb	v0,113(a0)
     54c:	8f840000 	lw	a0,0(gp)
     550:	a0620072 	sb	v0,114(v1)
     554:	8f830000 	lw	v1,0(gp)
     558:	a0820073 	sb	v0,115(a0)
     55c:	8f840000 	lw	a0,0(gp)
     560:	a0620074 	sb	v0,116(v1)
     564:	8f830000 	lw	v1,0(gp)
     568:	a0820075 	sb	v0,117(a0)
     56c:	8f840000 	lw	a0,0(gp)
     570:	a0620076 	sb	v0,118(v1)
     574:	8f830000 	lw	v1,0(gp)
     578:	a0820077 	sb	v0,119(a0)
     57c:	8f840000 	lw	a0,0(gp)
     580:	a0620078 	sb	v0,120(v1)
     584:	8f830000 	lw	v1,0(gp)
     588:	a0820079 	sb	v0,121(a0)
     58c:	8f840000 	lw	a0,0(gp)
     590:	a062007a 	sb	v0,122(v1)
     594:	8f830000 	lw	v1,0(gp)
     598:	a082007b 	sb	v0,123(a0)
     59c:	8f840000 	lw	a0,0(gp)
     5a0:	a062007c 	sb	v0,124(v1)
     5a4:	8f830000 	lw	v1,0(gp)
     5a8:	a082007d 	sb	v0,125(a0)
     5ac:	8f840000 	lw	a0,0(gp)
     5b0:	a062007e 	sb	v0,126(v1)
     5b4:	8f830000 	lw	v1,0(gp)
     5b8:	a082007f 	sb	v0,127(a0)
     5bc:	8f840000 	lw	a0,0(gp)
     5c0:	a0620080 	sb	v0,128(v1)
     5c4:	8f830000 	lw	v1,0(gp)
     5c8:	a0820081 	sb	v0,129(a0)
     5cc:	8f840000 	lw	a0,0(gp)
     5d0:	a0620082 	sb	v0,130(v1)
     5d4:	8f830000 	lw	v1,0(gp)
     5d8:	a0820083 	sb	v0,131(a0)
     5dc:	8f840000 	lw	a0,0(gp)
     5e0:	a0620084 	sb	v0,132(v1)
     5e4:	8f830000 	lw	v1,0(gp)
     5e8:	a0820085 	sb	v0,133(a0)
     5ec:	8f840000 	lw	a0,0(gp)
     5f0:	a0620086 	sb	v0,134(v1)
     5f4:	8f830000 	lw	v1,0(gp)
     5f8:	a0820087 	sb	v0,135(a0)
     5fc:	8f840000 	lw	a0,0(gp)
     600:	a0620088 	sb	v0,136(v1)
     604:	8f830000 	lw	v1,0(gp)
     608:	a0820089 	sb	v0,137(a0)
     60c:	8f840000 	lw	a0,0(gp)
     610:	a062008a 	sb	v0,138(v1)
     614:	8f830000 	lw	v1,0(gp)
     618:	a082008b 	sb	v0,139(a0)
     61c:	8f840000 	lw	a0,0(gp)
     620:	a062008c 	sb	v0,140(v1)
     624:	8f830000 	lw	v1,0(gp)
     628:	a082008d 	sb	v0,141(a0)
     62c:	8f840000 	lw	a0,0(gp)
     630:	a062008e 	sb	v0,142(v1)
     634:	8f830000 	lw	v1,0(gp)
     638:	a082008f 	sb	v0,143(a0)
     63c:	8f840000 	lw	a0,0(gp)
     640:	a0620090 	sb	v0,144(v1)
     644:	8f830000 	lw	v1,0(gp)
     648:	a0820091 	sb	v0,145(a0)
     64c:	8f840000 	lw	a0,0(gp)
     650:	a0620092 	sb	v0,146(v1)
     654:	8f830000 	lw	v1,0(gp)
     658:	a0820093 	sb	v0,147(a0)
     65c:	8f840000 	lw	a0,0(gp)
     660:	a0620094 	sb	v0,148(v1)
     664:	8f830000 	lw	v1,0(gp)
     668:	a0820095 	sb	v0,149(a0)
     66c:	8f840000 	lw	a0,0(gp)
     670:	a0620096 	sb	v0,150(v1)
     674:	8f830000 	lw	v1,0(gp)
     678:	a0820097 	sb	v0,151(a0)
     67c:	8f840000 	lw	a0,0(gp)
     680:	a0620098 	sb	v0,152(v1)
     684:	8f830000 	lw	v1,0(gp)
     688:	a0820099 	sb	v0,153(a0)
     68c:	8f840000 	lw	a0,0(gp)
     690:	a0620046 	sb	v0,70(v1)
     694:	8f830000 	lw	v1,0(gp)
     698:	a082009a 	sb	v0,154(a0)
     69c:	8f840000 	lw	a0,0(gp)
     6a0:	a062009b 	sb	v0,155(v1)
     6a4:	8f830000 	lw	v1,0(gp)
     6a8:	a082009c 	sb	v0,156(a0)
     6ac:	8f840000 	lw	a0,0(gp)
     6b0:	a062009d 	sb	v0,157(v1)
     6b4:	8f830000 	lw	v1,0(gp)
     6b8:	a082009e 	sb	v0,158(a0)
     6bc:	8f840000 	lw	a0,0(gp)
     6c0:	a062009f 	sb	v0,159(v1)
     6c4:	8f830000 	lw	v1,0(gp)
     6c8:	a08200a0 	sb	v0,160(a0)
     6cc:	8f840000 	lw	a0,0(gp)
     6d0:	a06200a1 	sb	v0,161(v1)
     6d4:	8f830000 	lw	v1,0(gp)
     6d8:	a08200a2 	sb	v0,162(a0)
     6dc:	8f840000 	lw	a0,0(gp)
     6e0:	a06200a3 	sb	v0,163(v1)
     6e4:	8f830000 	lw	v1,0(gp)
     6e8:	a08200a4 	sb	v0,164(a0)
     6ec:	8f840000 	lw	a0,0(gp)
     6f0:	a06200a5 	sb	v0,165(v1)
     6f4:	8f830000 	lw	v1,0(gp)
     6f8:	a08200a6 	sb	v0,166(a0)
     6fc:	8f840000 	lw	a0,0(gp)
     700:	a06200a7 	sb	v0,167(v1)
     704:	8f830000 	lw	v1,0(gp)
     708:	a08200a8 	sb	v0,168(a0)
     70c:	8f840000 	lw	a0,0(gp)
     710:	a06200a9 	sb	v0,169(v1)
     714:	8f830000 	lw	v1,0(gp)
     718:	a08200aa 	sb	v0,170(a0)
     71c:	8f840000 	lw	a0,0(gp)
     720:	a06200ab 	sb	v0,171(v1)
     724:	8f830000 	lw	v1,0(gp)
     728:	a08200ac 	sb	v0,172(a0)
     72c:	8f840000 	lw	a0,0(gp)
     730:	a06200ad 	sb	v0,173(v1)
     734:	8f830000 	lw	v1,0(gp)
     738:	a08200ae 	sb	v0,174(a0)
     73c:	8f840000 	lw	a0,0(gp)
     740:	a06200af 	sb	v0,175(v1)
     744:	8f830000 	lw	v1,0(gp)
     748:	a08200b0 	sb	v0,176(a0)
     74c:	8f840000 	lw	a0,0(gp)
     750:	a06200b1 	sb	v0,177(v1)
     754:	8f830000 	lw	v1,0(gp)
     758:	a08200b2 	sb	v0,178(a0)
     75c:	8f840000 	lw	a0,0(gp)
     760:	a06200b3 	sb	v0,179(v1)
     764:	8f830000 	lw	v1,0(gp)
     768:	a08200b5 	sb	v0,181(a0)
     76c:	8f840000 	lw	a0,0(gp)
     770:	a06200b4 	sb	v0,180(v1)
     774:	8f830000 	lw	v1,0(gp)
     778:	a08200b7 	sb	v0,183(a0)
     77c:	8f840000 	lw	a0,0(gp)
     780:	a06200b6 	sb	v0,182(v1)
     784:	8f830000 	lw	v1,0(gp)
     788:	a08200b9 	sb	v0,185(a0)
     78c:	03e00008 	jr	ra
     790:	a06200b8 	sb	v0,184(v1)

00000794 <_Unwind_FindEnclosingFunction>:
     794:	3c1c0000 	lui	gp,0x0
     798:	279c0000 	addiu	gp,gp,0
     79c:	0399e021 	addu	gp,gp,t9
     7a0:	27bdffd0 	addiu	sp,sp,-48
     7a4:	afbf002c 	sw	ra,44(sp)
     7a8:	afbc0010 	sw	gp,16(sp)
     7ac:	8f990000 	lw	t9,0(gp)
     7b0:	2484ffff 	addiu	a0,a0,-1
     7b4:	0320f809 	jalr	t9
     7b8:	27a50018 	addiu	a1,sp,24
     7bc:	8fbc0010 	lw	gp,16(sp)
     7c0:	10400002 	beqz	v0,7cc <_Unwind_FindEnclosingFunction+0x38>
     7c4:	00001821 	move	v1,zero
     7c8:	8fa30020 	lw	v1,32(sp)
     7cc:	8fbf002c 	lw	ra,44(sp)
     7d0:	00601021 	move	v0,v1
     7d4:	03e00008 	jr	ra
     7d8:	27bd0030 	addiu	sp,sp,48

000007dc <execute_cfa_program>:
     7dc:	3c1c0000 	lui	gp,0x0
     7e0:	279c0000 	addiu	gp,gp,0
     7e4:	0399e021 	addu	gp,gp,t9
     7e8:	27bdff98 	addiu	sp,sp,-104
     7ec:	afbe0060 	sw	s8,96(sp)
     7f0:	03a0f021 	move	s8,sp
     7f4:	afbf0064 	sw	ra,100(sp)
     7f8:	afb7005c 	sw	s7,92(sp)
     7fc:	afb60058 	sw	s6,88(sp)
     800:	afb50054 	sw	s5,84(sp)
     804:	afb40050 	sw	s4,80(sp)
     808:	afb3004c 	sw	s3,76(sp)
     80c:	afb20048 	sw	s2,72(sp)
     810:	afb10044 	sw	s1,68(sp)
     814:	afb00040 	sw	s0,64(sp)
     818:	afbc0010 	sw	gp,16(sp)
     81c:	0085102b 	sltu	v0,a0,a1
     820:	00804021 	move	t0,a0
     824:	00a0a821 	move	s5,a1
     828:	00e08821 	move	s1,a3
     82c:	00c09021 	move	s2,a2
     830:	10400032 	beqz	v0,8fc <execute_cfa_program+0x120>
     834:	ace005e8 	sw	zero,1512(a3)
     838:	8cc3030c 	lw	v1,780(a2)
     83c:	8cc202f8 	lw	v0,760(a2)
     840:	8ce505fc 	lw	a1,1532(a3)
     844:	00031fc2 	srl	v1,v1,0x1f
     848:	00431021 	addu	v0,v0,v1
     84c:	00a2102b 	sltu	v0,a1,v0
     850:	1040002a 	beqz	v0,8fc <execute_cfa_program+0x120>
     854:	8f820000 	lw	v0,0(gp)
     858:	24e305f0 	addiu	v1,a3,1520
     85c:	27c4001c 	addiu	a0,s8,28
     860:	244c0000 	addiu	t4,v0,0
     864:	27c20018 	addiu	v0,s8,24
     868:	afc00020 	sw	zero,32(s8)
     86c:	24130040 	li	s3,64
     870:	24170080 	li	s7,128
     874:	240b00c0 	li	t3,192
     878:	24140001 	li	s4,1
     87c:	afc20024 	sw	v0,36(s8)
     880:	afc30028 	sw	v1,40(s8)
     884:	afc4002c 	sw	a0,44(s8)
     888:	91040000 	lbu	a0,0(t0)
     88c:	308200c0 	andi	v0,a0,0xc0
     890:	1053000a 	beq	v0,s3,8bc <execute_cfa_program+0xe0>
     894:	25080001 	addiu	t0,t0,1
     898:	10570025 	beq	v0,s7,930 <execute_cfa_program+0x154>
     89c:	3086003f 	andi	a2,a0,0x3f
     8a0:	104b0039 	beq	v0,t3,988 <execute_cfa_program+0x1ac>
     8a4:	2c820030 	sltiu	v0,a0,48
     8a8:	14400032 	bnez	v0,974 <execute_cfa_program+0x198>
     8ac:	00041080 	sll	v0,a0,0x2
     8b0:	8f990000 	lw	t9,0(gp)
     8b4:	0320f809 	jalr	t9
     8b8:	00000000 	nop
     8bc:	8e230608 	lw	v1,1544(s1)
     8c0:	3082003f 	andi	v0,a0,0x3f
     8c4:	70432002 	mul	a0,v0,v1
     8c8:	00851021 	addu	v0,a0,a1
     8cc:	ae2205fc 	sw	v0,1532(s1)
     8d0:	0115102b 	sltu	v0,t0,s5
     8d4:	10400009 	beqz	v0,8fc <execute_cfa_program+0x120>
     8d8:	00000000 	nop
     8dc:	8e43030c 	lw	v1,780(s2)
     8e0:	8e4202f8 	lw	v0,760(s2)
     8e4:	8e2505fc 	lw	a1,1532(s1)
     8e8:	00031fc2 	srl	v1,v1,0x1f
     8ec:	00431021 	addu	v0,v0,v1
     8f0:	00a2102b 	sltu	v0,a1,v0
     8f4:	1440ffe4 	bnez	v0,888 <execute_cfa_program+0xac>
     8f8:	00000000 	nop
     8fc:	03c0e821 	move	sp,s8
     900:	8fdf0064 	lw	ra,100(s8)
     904:	8fbe0060 	lw	s8,96(sp)
     908:	8fb7005c 	lw	s7,92(sp)
     90c:	8fb60058 	lw	s6,88(sp)
     910:	8fb50054 	lw	s5,84(sp)
     914:	8fb40050 	lw	s4,80(sp)
     918:	8fb3004c 	lw	s3,76(sp)
     91c:	8fb20048 	lw	s2,72(sp)
     920:	8fb10044 	lw	s1,68(sp)
     924:	8fb00040 	lw	s0,64(sp)
     928:	03e00008 	jr	ra
     92c:	27bd0068 	addiu	sp,sp,104
     930:	00002821 	move	a1,zero
     934:	00002021 	move	a0,zero
     938:	91030000 	lbu	v1,0(t0)
     93c:	25080001 	addiu	t0,t0,1
     940:	3062007f 	andi	v0,v1,0x7f
     944:	00821004 	sllv	v0,v0,a0
     948:	7c031c20 	seb	v1,v1
     94c:	00a22825 	or	a1,a1,v0
     950:	0460fff9 	bltz	v1,938 <execute_cfa_program+0x15c>
     954:	24840007 	addiu	a0,a0,7
     958:	8e230604 	lw	v1,1540(s1)
     95c:	000610c0 	sll	v0,a2,0x3
     960:	02221021 	addu	v0,s1,v0
     964:	70a31802 	mul	v1,a1,v1
     968:	ac540004 	sw	s4,4(v0)
     96c:	1000ffd8 	b	8d0 <execute_cfa_program+0xf4>
     970:	ac430000 	sw	v1,0(v0)
     974:	01821021 	addu	v0,t4,v0
     978:	8c430000 	lw	v1,0(v0)
     97c:	007c1821 	addu	v1,v1,gp
     980:	00600008 	jr	v1
     984:	00000000 	nop
     988:	3082003f 	andi	v0,a0,0x3f
     98c:	000210c0 	sll	v0,v0,0x3
     990:	02221021 	addu	v0,s1,v0
     994:	1000ffce 	b	8d0 <execute_cfa_program+0xf4>
     998:	ac400004 	sw	zero,4(v0)
     99c:	00003021 	move	a2,zero
     9a0:	00002021 	move	a0,zero
     9a4:	91030000 	lbu	v1,0(t0)
     9a8:	25080001 	addiu	t0,t0,1
     9ac:	3062007f 	andi	v0,v1,0x7f
     9b0:	00821004 	sllv	v0,v0,a0
     9b4:	7c031c20 	seb	v1,v1
     9b8:	00c23025 	or	a2,a2,v0
     9bc:	0460fff9 	bltz	v1,9a4 <execute_cfa_program+0x1c8>
     9c0:	24840007 	addiu	a0,a0,7
     9c4:	00002821 	move	a1,zero
     9c8:	00002021 	move	a0,zero
     9cc:	91030000 	lbu	v1,0(t0)
     9d0:	25080001 	addiu	t0,t0,1
     9d4:	3062007f 	andi	v0,v1,0x7f
     9d8:	00821004 	sllv	v0,v0,a0
     9dc:	7c031c20 	seb	v1,v1
     9e0:	00a22825 	or	a1,a1,v0
     9e4:	0460fff9 	bltz	v1,9cc <execute_cfa_program+0x1f0>
     9e8:	24840007 	addiu	a0,a0,7
     9ec:	8e220604 	lw	v0,1540(s1)
     9f0:	000618c0 	sll	v1,a2,0x3
     9f4:	02231821 	addu	v1,s1,v1
     9f8:	70a21002 	mul	v0,a1,v0
     9fc:	ac740004 	sw	s4,4(v1)
     a00:	00021023 	negu	v0,v0
     a04:	1000ffb2 	b	8d0 <execute_cfa_program+0xf4>
     a08:	ac620000 	sw	v0,0(v1)
     a0c:	92300610 	lbu	s0,1552(s1)
     a10:	240200ff 	li	v0,255
     a14:	120201c4 	beq	s0,v0,1128 <execute_cfa_program+0x94c>
     a18:	32030070 	andi	v1,s0,0x70
     a1c:	24020020 	li	v0,32
     a20:	1062020f 	beq	v1,v0,1260 <execute_cfa_program+0xa84>
     a24:	28620021 	slti	v0,v1,33
     a28:	144001cd 	bnez	v0,1160 <execute_cfa_program+0x984>
     a2c:	00000000 	nop
     a30:	1073020d 	beq	v1,s3,1268 <execute_cfa_program+0xa8c>
     a34:	24020050 	li	v0,80
     a38:	106201ce 	beq	v1,v0,1174 <execute_cfa_program+0x998>
     a3c:	24020030 	li	v0,48
     a40:	1462ff9c 	bne	v1,v0,8b4 <execute_cfa_program+0xd8>
     a44:	8f990000 	lw	t9,0(gp)
     a48:	8e560304 	lw	s6,772(s2)
     a4c:	24020050 	li	v0,80
     a50:	160201b7 	bne	s0,v0,1130 <execute_cfa_program+0x954>
     a54:	01003021 	move	a2,t0
     a58:	25020003 	addiu	v0,t0,3
     a5c:	2403fffc 	li	v1,-4
     a60:	00431024 	and	v0,v0,v1
     a64:	8c440000 	lw	a0,0(v0)
     a68:	24480004 	addiu	t0,v0,4
     a6c:	1000ff98 	b	8d0 <execute_cfa_program+0xf4>
     a70:	ae2405fc 	sw	a0,1532(s1)
     a74:	91020000 	lbu	v0,0(t0)
     a78:	8e230608 	lw	v1,1544(s1)
     a7c:	25080001 	addiu	t0,t0,1
     a80:	70432002 	mul	a0,v0,v1
     a84:	00851021 	addu	v0,a0,a1
     a88:	1000ff91 	b	8d0 <execute_cfa_program+0xf4>
     a8c:	ae2205fc 	sw	v0,1532(s1)
     a90:	91020001 	lbu	v0,1(t0)
     a94:	91030000 	lbu	v1,0(t0)
     a98:	8e240608 	lw	a0,1544(s1)
     a9c:	00021200 	sll	v0,v0,0x8
     aa0:	00431025 	or	v0,v0,v1
     aa4:	70441802 	mul	v1,v0,a0
     aa8:	25080002 	addiu	t0,t0,2
     aac:	00651021 	addu	v0,v1,a1
     ab0:	1000ff87 	b	8d0 <execute_cfa_program+0xf4>
     ab4:	ae2205fc 	sw	v0,1532(s1)
     ab8:	89020003 	lwl	v0,3(t0)
     abc:	8e230608 	lw	v1,1544(s1)
     ac0:	99020000 	lwr	v0,0(t0)
     ac4:	25080004 	addiu	t0,t0,4
     ac8:	70432002 	mul	a0,v0,v1
     acc:	00851021 	addu	v0,a0,a1
     ad0:	1000ff7f 	b	8d0 <execute_cfa_program+0xf4>
     ad4:	ae2205fc 	sw	v0,1532(s1)
     ad8:	00003021 	move	a2,zero
     adc:	00002021 	move	a0,zero
     ae0:	91030000 	lbu	v1,0(t0)
     ae4:	25080001 	addiu	t0,t0,1
     ae8:	3062007f 	andi	v0,v1,0x7f
     aec:	00821004 	sllv	v0,v0,a0
     af0:	7c031c20 	seb	v1,v1
     af4:	00c23025 	or	a2,a2,v0
     af8:	0460fff9 	bltz	v1,ae0 <execute_cfa_program+0x304>
     afc:	24840007 	addiu	a0,a0,7
     b00:	00002821 	move	a1,zero
     b04:	00002021 	move	a0,zero
     b08:	91030000 	lbu	v1,0(t0)
     b0c:	25080001 	addiu	t0,t0,1
     b10:	3062007f 	andi	v0,v1,0x7f
     b14:	00821004 	sllv	v0,v0,a0
     b18:	7c031c20 	seb	v1,v1
     b1c:	00a22825 	or	a1,a1,v0
     b20:	0460fff9 	bltz	v1,b08 <execute_cfa_program+0x32c>
     b24:	24840007 	addiu	a0,a0,7
     b28:	8e230604 	lw	v1,1540(s1)
     b2c:	000610c0 	sll	v0,a2,0x3
     b30:	02221021 	addu	v0,s1,v0
     b34:	70a31802 	mul	v1,a1,v1
     b38:	ac540004 	sw	s4,4(v0)
     b3c:	1000ff64 	b	8d0 <execute_cfa_program+0xf4>
     b40:	ac430000 	sw	v1,0(v0)
     b44:	00002821 	move	a1,zero
     b48:	00002021 	move	a0,zero
     b4c:	91030000 	lbu	v1,0(t0)
     b50:	25080001 	addiu	t0,t0,1
     b54:	3062007f 	andi	v0,v1,0x7f
     b58:	00821004 	sllv	v0,v0,a0
     b5c:	7c031c20 	seb	v1,v1
     b60:	00a22825 	or	a1,a1,v0
     b64:	0460fff9 	bltz	v1,b4c <execute_cfa_program+0x370>
     b68:	24840007 	addiu	a0,a0,7
     b6c:	000510c0 	sll	v0,a1,0x3
     b70:	02221021 	addu	v0,s1,v0
     b74:	1000ff56 	b	8d0 <execute_cfa_program+0xf4>
     b78:	ac400004 	sw	zero,4(v0)
     b7c:	00002821 	move	a1,zero
     b80:	00002021 	move	a0,zero
     b84:	91030000 	lbu	v1,0(t0)
     b88:	25080001 	addiu	t0,t0,1
     b8c:	3062007f 	andi	v0,v1,0x7f
     b90:	00821004 	sllv	v0,v0,a0
     b94:	7c031c20 	seb	v1,v1
     b98:	00a22825 	or	a1,a1,v0
     b9c:	0460fff9 	bltz	v1,b84 <execute_cfa_program+0x3a8>
     ba0:	24840007 	addiu	a0,a0,7
     ba4:	000510c0 	sll	v0,a1,0x3
     ba8:	02221021 	addu	v0,s1,v0
     bac:	1000ff48 	b	8d0 <execute_cfa_program+0xf4>
     bb0:	ac400004 	sw	zero,4(v0)
     bb4:	00003021 	move	a2,zero
     bb8:	00002021 	move	a0,zero
     bbc:	91030000 	lbu	v1,0(t0)
     bc0:	25080001 	addiu	t0,t0,1
     bc4:	3062007f 	andi	v0,v1,0x7f
     bc8:	00821004 	sllv	v0,v0,a0
     bcc:	7c031c20 	seb	v1,v1
     bd0:	00c23025 	or	a2,a2,v0
     bd4:	0460fff9 	bltz	v1,bbc <execute_cfa_program+0x3e0>
     bd8:	24840007 	addiu	a0,a0,7
     bdc:	00002821 	move	a1,zero
     be0:	00002021 	move	a0,zero
     be4:	91030000 	lbu	v1,0(t0)
     be8:	25080001 	addiu	t0,t0,1
     bec:	3062007f 	andi	v0,v1,0x7f
     bf0:	00821004 	sllv	v0,v0,a0
     bf4:	7c031c20 	seb	v1,v1
     bf8:	00a22825 	or	a1,a1,v0
     bfc:	0460fff9 	bltz	v1,be4 <execute_cfa_program+0x408>
     c00:	24840007 	addiu	a0,a0,7
     c04:	000610c0 	sll	v0,a2,0x3
     c08:	02221021 	addu	v0,s1,v0
     c0c:	24030002 	li	v1,2
     c10:	ac450000 	sw	a1,0(v0)
     c14:	1000ff2e 	b	8d0 <execute_cfa_program+0xf4>
     c18:	ac430004 	sw	v1,4(v0)
     c1c:	8fc40020 	lw	a0,32(s8)
     c20:	10800193 	beqz	a0,1270 <execute_cfa_program+0xa94>
     c24:	00000000 	nop
     c28:	8c8505e8 	lw	a1,1512(a0)
     c2c:	00804821 	move	t1,a0
     c30:	afc50020 	sw	a1,32(s8)
     c34:	02203021 	move	a2,s1
     c38:	01203821 	move	a3,t1
     c3c:	8cc20000 	lw	v0,0(a2)
     c40:	8cc30004 	lw	v1,4(a2)
     c44:	8cc40008 	lw	a0,8(a2)
     c48:	8cc5000c 	lw	a1,12(a2)
     c4c:	8fd90028 	lw	t9,40(s8)
     c50:	24c60010 	addiu	a2,a2,16
     c54:	ace20000 	sw	v0,0(a3)
     c58:	ace30004 	sw	v1,4(a3)
     c5c:	ace40008 	sw	a0,8(a3)
     c60:	ace5000c 	sw	a1,12(a3)
     c64:	14d9fff5 	bne	a2,t9,c3c <execute_cfa_program+0x460>
     c68:	24e70010 	addiu	a3,a3,16
     c6c:	8f220000 	lw	v0,0(t9)
     c70:	8f230004 	lw	v1,4(t9)
     c74:	8f240008 	lw	a0,8(t9)
     c78:	ace20000 	sw	v0,0(a3)
     c7c:	ace30004 	sw	v1,4(a3)
     c80:	ace40008 	sw	a0,8(a3)
     c84:	1000ff12 	b	8d0 <execute_cfa_program+0xf4>
     c88:	ae2905e8 	sw	t1,1512(s1)
     c8c:	8e2905e8 	lw	t1,1512(s1)
     c90:	02203821 	move	a3,s1
     c94:	01203021 	move	a2,t1
     c98:	252a05f0 	addiu	t2,t1,1520
     c9c:	8cc20000 	lw	v0,0(a2)
     ca0:	8cc30004 	lw	v1,4(a2)
     ca4:	8cc40008 	lw	a0,8(a2)
     ca8:	8cc5000c 	lw	a1,12(a2)
     cac:	24c60010 	addiu	a2,a2,16
     cb0:	ace20000 	sw	v0,0(a3)
     cb4:	ace30004 	sw	v1,4(a3)
     cb8:	ace40008 	sw	a0,8(a3)
     cbc:	ace5000c 	sw	a1,12(a3)
     cc0:	14cafff6 	bne	a2,t2,c9c <execute_cfa_program+0x4c0>
     cc4:	24e70010 	addiu	a3,a3,16
     cc8:	8cc20008 	lw	v0,8(a2)
     ccc:	8cc30000 	lw	v1,0(a2)
     cd0:	8cc40004 	lw	a0,4(a2)
     cd4:	ace20008 	sw	v0,8(a3)
     cd8:	8fc20020 	lw	v0,32(s8)
     cdc:	ace30000 	sw	v1,0(a3)
     ce0:	ace40004 	sw	a0,4(a3)
     ce4:	afc90020 	sw	t1,32(s8)
     ce8:	1000fef9 	b	8d0 <execute_cfa_program+0xf4>
     cec:	ad2205e8 	sw	v0,1512(t1)
     cf0:	00002821 	move	a1,zero
     cf4:	00002021 	move	a0,zero
     cf8:	91030000 	lbu	v1,0(t0)
     cfc:	25080001 	addiu	t0,t0,1
     d00:	3062007f 	andi	v0,v1,0x7f
     d04:	00821004 	sllv	v0,v0,a0
     d08:	7c031c20 	seb	v1,v1
     d0c:	00a22825 	or	a1,a1,v0
     d10:	0460fff9 	bltz	v1,cf8 <execute_cfa_program+0x51c>
     d14:	24840007 	addiu	a0,a0,7
     d18:	ae2505f0 	sw	a1,1520(s1)
     d1c:	00002021 	move	a0,zero
     d20:	00002821 	move	a1,zero
     d24:	91030000 	lbu	v1,0(t0)
     d28:	25080001 	addiu	t0,t0,1
     d2c:	3062007f 	andi	v0,v1,0x7f
     d30:	00821004 	sllv	v0,v0,a0
     d34:	7c031c20 	seb	v1,v1
     d38:	00a22825 	or	a1,a1,v0
     d3c:	0460fff9 	bltz	v1,d24 <execute_cfa_program+0x548>
     d40:	24840007 	addiu	a0,a0,7
     d44:	ae2505ec 	sw	a1,1516(s1)
     d48:	1000fee1 	b	8d0 <execute_cfa_program+0xf4>
     d4c:	ae3405f8 	sw	s4,1528(s1)
     d50:	00002821 	move	a1,zero
     d54:	00002021 	move	a0,zero
     d58:	91030000 	lbu	v1,0(t0)
     d5c:	25080001 	addiu	t0,t0,1
     d60:	3062007f 	andi	v0,v1,0x7f
     d64:	00821004 	sllv	v0,v0,a0
     d68:	7c031c20 	seb	v1,v1
     d6c:	00a22825 	or	a1,a1,v0
     d70:	0460fff9 	bltz	v1,d58 <execute_cfa_program+0x57c>
     d74:	24840007 	addiu	a0,a0,7
     d78:	ae2505f0 	sw	a1,1520(s1)
     d7c:	1000fed4 	b	8d0 <execute_cfa_program+0xf4>
     d80:	ae3405f8 	sw	s4,1528(s1)
     d84:	00002821 	move	a1,zero
     d88:	00002021 	move	a0,zero
     d8c:	91030000 	lbu	v1,0(t0)
     d90:	25080001 	addiu	t0,t0,1
     d94:	3062007f 	andi	v0,v1,0x7f
     d98:	00821004 	sllv	v0,v0,a0
     d9c:	7c031c20 	seb	v1,v1
     da0:	00a22825 	or	a1,a1,v0
     da4:	0460fff9 	bltz	v1,d8c <execute_cfa_program+0x5b0>
     da8:	24840007 	addiu	a0,a0,7
     dac:	1000fec8 	b	8d0 <execute_cfa_program+0xf4>
     db0:	ae2505ec 	sw	a1,1516(s1)
     db4:	24030002 	li	v1,2
     db8:	ae2805f4 	sw	t0,1524(s1)
     dbc:	ae2305f8 	sw	v1,1528(s1)
     dc0:	00002821 	move	a1,zero
     dc4:	00002021 	move	a0,zero
     dc8:	91030000 	lbu	v1,0(t0)
     dcc:	25080001 	addiu	t0,t0,1
     dd0:	3062007f 	andi	v0,v1,0x7f
     dd4:	00821004 	sllv	v0,v0,a0
     dd8:	7c031c20 	seb	v1,v1
     ddc:	00a22825 	or	a1,a1,v0
     de0:	0460fff9 	bltz	v1,dc8 <execute_cfa_program+0x5ec>
     de4:	24840007 	addiu	a0,a0,7
     de8:	1000feb9 	b	8d0 <execute_cfa_program+0xf4>
     dec:	01054021 	addu	t0,t0,a1
     df0:	00002821 	move	a1,zero
     df4:	00002021 	move	a0,zero
     df8:	91030000 	lbu	v1,0(t0)
     dfc:	25080001 	addiu	t0,t0,1
     e00:	3062007f 	andi	v0,v1,0x7f
     e04:	00821004 	sllv	v0,v0,a0
     e08:	7c031c20 	seb	v1,v1
     e0c:	00a22825 	or	a1,a1,v0
     e10:	0460fff9 	bltz	v1,df8 <execute_cfa_program+0x61c>
     e14:	24840007 	addiu	a0,a0,7
     e18:	000510c0 	sll	v0,a1,0x3
     e1c:	02221021 	addu	v0,s1,v0
     e20:	24040003 	li	a0,3
     e24:	ac440004 	sw	a0,4(v0)
     e28:	ac480000 	sw	t0,0(v0)
     e2c:	00002821 	move	a1,zero
     e30:	00002021 	move	a0,zero
     e34:	91030000 	lbu	v1,0(t0)
     e38:	25080001 	addiu	t0,t0,1
     e3c:	3062007f 	andi	v0,v1,0x7f
     e40:	00821004 	sllv	v0,v0,a0
     e44:	7c031c20 	seb	v1,v1
     e48:	00a22825 	or	a1,a1,v0
     e4c:	0460fff9 	bltz	v1,e34 <execute_cfa_program+0x658>
     e50:	24840007 	addiu	a0,a0,7
     e54:	1000fe9e 	b	8d0 <execute_cfa_program+0xf4>
     e58:	01054021 	addu	t0,t0,a1
     e5c:	00008021 	move	s0,zero
     e60:	00002021 	move	a0,zero
     e64:	91030000 	lbu	v1,0(t0)
     e68:	25080001 	addiu	t0,t0,1
     e6c:	3062007f 	andi	v0,v1,0x7f
     e70:	00821004 	sllv	v0,v0,a0
     e74:	7c031c20 	seb	v1,v1
     e78:	02028025 	or	s0,s0,v0
     e7c:	0460fff9 	bltz	v1,e64 <execute_cfa_program+0x688>
     e80:	24840007 	addiu	a0,a0,7
     e84:	8f990000 	lw	t9,0(gp)
     e88:	8fc50024 	lw	a1,36(s8)
     e8c:	01002021 	move	a0,t0
     e90:	afcb0034 	sw	t3,52(s8)
     e94:	27390000 	addiu	t9,t9,0
     e98:	0320f809 	jalr	t9
     e9c:	afcc0038 	sw	t4,56(s8)
     ea0:	8e250604 	lw	a1,1540(s1)
     ea4:	8fc30018 	lw	v1,24(s8)
     ea8:	001020c0 	sll	a0,s0,0x3
     eac:	02242021 	addu	a0,s1,a0
     eb0:	70651802 	mul	v1,v1,a1
     eb4:	8fdc0010 	lw	gp,16(s8)
     eb8:	00404021 	move	t0,v0
     ebc:	ac940004 	sw	s4,4(a0)
     ec0:	ac830000 	sw	v1,0(a0)
     ec4:	8fcb0034 	lw	t3,52(s8)
     ec8:	1000fe81 	b	8d0 <execute_cfa_program+0xf4>
     ecc:	8fcc0038 	lw	t4,56(s8)
     ed0:	00002821 	move	a1,zero
     ed4:	00002021 	move	a0,zero
     ed8:	91030000 	lbu	v1,0(t0)
     edc:	25080001 	addiu	t0,t0,1
     ee0:	3062007f 	andi	v0,v1,0x7f
     ee4:	00821004 	sllv	v0,v0,a0
     ee8:	7c031c20 	seb	v1,v1
     eec:	00a22825 	or	a1,a1,v0
     ef0:	0460fff9 	bltz	v1,ed8 <execute_cfa_program+0x6fc>
     ef4:	24840007 	addiu	a0,a0,7
     ef8:	8f990000 	lw	t9,0(gp)
     efc:	ae2505f0 	sw	a1,1520(s1)
     f00:	8fc50024 	lw	a1,36(s8)
     f04:	01002021 	move	a0,t0
     f08:	afcb0034 	sw	t3,52(s8)
     f0c:	27390000 	addiu	t9,t9,0
     f10:	0320f809 	jalr	t9
     f14:	afcc0038 	sw	t4,56(s8)
     f18:	8e230604 	lw	v1,1540(s1)
     f1c:	00404021 	move	t0,v0
     f20:	8fc20018 	lw	v0,24(s8)
     f24:	8fdc0010 	lw	gp,16(s8)
     f28:	ae3405f8 	sw	s4,1528(s1)
     f2c:	70431002 	mul	v0,v0,v1
     f30:	8fcb0034 	lw	t3,52(s8)
     f34:	8fcc0038 	lw	t4,56(s8)
     f38:	1000fe65 	b	8d0 <execute_cfa_program+0xf4>
     f3c:	ae2205ec 	sw	v0,1516(s1)
     f40:	8f990000 	lw	t9,0(gp)
     f44:	8fc50024 	lw	a1,36(s8)
     f48:	01002021 	move	a0,t0
     f4c:	afcb0034 	sw	t3,52(s8)
     f50:	27390000 	addiu	t9,t9,0
     f54:	0320f809 	jalr	t9
     f58:	afcc0038 	sw	t4,56(s8)
     f5c:	8e230604 	lw	v1,1540(s1)
     f60:	00404021 	move	t0,v0
     f64:	8fc20018 	lw	v0,24(s8)
     f68:	8fdc0010 	lw	gp,16(s8)
     f6c:	8fcb0034 	lw	t3,52(s8)
     f70:	70621802 	mul	v1,v1,v0
     f74:	8fcc0038 	lw	t4,56(s8)
     f78:	1000fe55 	b	8d0 <execute_cfa_program+0xf4>
     f7c:	ae2305ec 	sw	v1,1516(s1)
     f80:	00003021 	move	a2,zero
     f84:	00002021 	move	a0,zero
     f88:	91030000 	lbu	v1,0(t0)
     f8c:	25080001 	addiu	t0,t0,1
     f90:	3062007f 	andi	v0,v1,0x7f
     f94:	00821004 	sllv	v0,v0,a0
     f98:	7c031c20 	seb	v1,v1
     f9c:	00c23025 	or	a2,a2,v0
     fa0:	0460fff9 	bltz	v1,f88 <execute_cfa_program+0x7ac>
     fa4:	24840007 	addiu	a0,a0,7
     fa8:	00002821 	move	a1,zero
     fac:	00002021 	move	a0,zero
     fb0:	91030000 	lbu	v1,0(t0)
     fb4:	25080001 	addiu	t0,t0,1
     fb8:	3062007f 	andi	v0,v1,0x7f
     fbc:	00821004 	sllv	v0,v0,a0
     fc0:	7c031c20 	seb	v1,v1
     fc4:	00a22825 	or	a1,a1,v0
     fc8:	0460fff9 	bltz	v1,fb0 <execute_cfa_program+0x7d4>
     fcc:	24840007 	addiu	a0,a0,7
     fd0:	8e230604 	lw	v1,1540(s1)
     fd4:	000610c0 	sll	v0,a2,0x3
     fd8:	02221021 	addu	v0,s1,v0
     fdc:	70a31802 	mul	v1,a1,v1
     fe0:	24040004 	li	a0,4
     fe4:	ac440004 	sw	a0,4(v0)
     fe8:	1000fe39 	b	8d0 <execute_cfa_program+0xf4>
     fec:	ac430000 	sw	v1,0(v0)
     ff0:	00008021 	move	s0,zero
     ff4:	00002021 	move	a0,zero
     ff8:	91030000 	lbu	v1,0(t0)
     ffc:	25080001 	addiu	t0,t0,1
    1000:	3062007f 	andi	v0,v1,0x7f
    1004:	00821004 	sllv	v0,v0,a0
    1008:	7c031c20 	seb	v1,v1
    100c:	02028025 	or	s0,s0,v0
    1010:	0460fff9 	bltz	v1,ff8 <execute_cfa_program+0x81c>
    1014:	24840007 	addiu	a0,a0,7
    1018:	8f990000 	lw	t9,0(gp)
    101c:	8fc50024 	lw	a1,36(s8)
    1020:	01002021 	move	a0,t0
    1024:	afcb0034 	sw	t3,52(s8)
    1028:	27390000 	addiu	t9,t9,0
    102c:	0320f809 	jalr	t9
    1030:	afcc0038 	sw	t4,56(s8)
    1034:	8e250604 	lw	a1,1540(s1)
    1038:	8fc30018 	lw	v1,24(s8)
    103c:	001020c0 	sll	a0,s0,0x3
    1040:	02242021 	addu	a0,s1,a0
    1044:	70651802 	mul	v1,v1,a1
    1048:	8fdc0010 	lw	gp,16(s8)
    104c:	00404021 	move	t0,v0
    1050:	24020004 	li	v0,4
    1054:	ac820004 	sw	v0,4(a0)
    1058:	ac830000 	sw	v1,0(a0)
    105c:	8fcb0034 	lw	t3,52(s8)
    1060:	1000fe1b 	b	8d0 <execute_cfa_program+0xf4>
    1064:	8fcc0038 	lw	t4,56(s8)
    1068:	00002821 	move	a1,zero
    106c:	00002021 	move	a0,zero
    1070:	91030000 	lbu	v1,0(t0)
    1074:	25080001 	addiu	t0,t0,1
    1078:	3062007f 	andi	v0,v1,0x7f
    107c:	00821004 	sllv	v0,v0,a0
    1080:	7c031c20 	seb	v1,v1
    1084:	00a22825 	or	a1,a1,v0
    1088:	0460fff9 	bltz	v1,1070 <execute_cfa_program+0x894>
    108c:	24840007 	addiu	a0,a0,7
    1090:	000510c0 	sll	v0,a1,0x3
    1094:	02221021 	addu	v0,s1,v0
    1098:	24030005 	li	v1,5
    109c:	ac480000 	sw	t0,0(v0)
    10a0:	ac430004 	sw	v1,4(v0)
    10a4:	00002821 	move	a1,zero
    10a8:	00002021 	move	a0,zero
    10ac:	91030000 	lbu	v1,0(t0)
    10b0:	25080001 	addiu	t0,t0,1
    10b4:	3062007f 	andi	v0,v1,0x7f
    10b8:	00821004 	sllv	v0,v0,a0
    10bc:	7c031c20 	seb	v1,v1
    10c0:	00a22825 	or	a1,a1,v0
    10c4:	0460fff9 	bltz	v1,10ac <execute_cfa_program+0x8d0>
    10c8:	24840007 	addiu	a0,a0,7
    10cc:	1000fe00 	b	8d0 <execute_cfa_program+0xf4>
    10d0:	01054021 	addu	t0,t0,a1
    10d4:	02201821 	move	v1,s1
    10d8:	00001021 	move	v0,zero
    10dc:	ac620080 	sw	v0,128(v1)
    10e0:	24420004 	addiu	v0,v0,4
    10e4:	ac740084 	sw	s4,132(v1)
    10e8:	1453fffc 	bne	v0,s3,10dc <execute_cfa_program+0x900>
    10ec:	24630008 	addiu	v1,v1,8
    10f0:	1000fdf8 	b	8d4 <execute_cfa_program+0xf8>
    10f4:	0115102b 	sltu	v0,t0,s5
    10f8:	00002821 	move	a1,zero
    10fc:	00002021 	move	a0,zero
    1100:	91030000 	lbu	v1,0(t0)
    1104:	25080001 	addiu	t0,t0,1
    1108:	3062007f 	andi	v0,v1,0x7f
    110c:	00821004 	sllv	v0,v0,a0
    1110:	7c031c20 	seb	v1,v1
    1114:	00a22825 	or	a1,a1,v0
    1118:	0460fff9 	bltz	v1,1100 <execute_cfa_program+0x924>
    111c:	24840007 	addiu	a0,a0,7
    1120:	1000fdeb 	b	8d0 <execute_cfa_program+0xf4>
    1124:	ae450314 	sw	a1,788(s2)
    1128:	01003021 	move	a2,t0
    112c:	0000b021 	move	s6,zero
    1130:	3203000f 	andi	v1,s0,0xf
    1134:	2c62000d 	sltiu	v0,v1,13
    1138:	1040fdde 	beqz	v0,8b4 <execute_cfa_program+0xd8>
    113c:	8f990000 	lw	t9,0(gp)
    1140:	00031080 	sll	v0,v1,0x2
    1144:	8f830000 	lw	v1,0(gp)
    1148:	246300c0 	addiu	v1,v1,192
    114c:	00621021 	addu	v0,v1,v0
    1150:	8c430000 	lw	v1,0(v0)
    1154:	007c1821 	addu	v1,v1,gp
    1158:	00600008 	jr	v1
    115c:	00000000 	nop
    1160:	1060fe3a 	beqz	v1,a4c <execute_cfa_program+0x270>
    1164:	0000b021 	move	s6,zero
    1168:	24020010 	li	v0,16
    116c:	1462fdd1 	bne	v1,v0,8b4 <execute_cfa_program+0xd8>
    1170:	8f990000 	lw	t9,0(gp)
    1174:	1000fe35 	b	a4c <execute_cfa_program+0x270>
    1178:	0000b021 	move	s6,zero
    117c:	89040003 	lwl	a0,3(t0)
    1180:	99040000 	lwr	a0,0(t0)
    1184:	25080004 	addiu	t0,t0,4
    1188:	1080fe38 	beqz	a0,a6c <execute_cfa_program+0x290>
    118c:	32020070 	andi	v0,s0,0x70
    1190:	38420010 	xori	v0,v0,0x10
    1194:	00c2b00a 	movz	s6,a2,v0
    1198:	7c101c20 	seb	v1,s0
    119c:	0461fe33 	bgez	v1,a6c <execute_cfa_program+0x290>
    11a0:	00962021 	addu	a0,a0,s6
    11a4:	8c840000 	lw	a0,0(a0)
    11a8:	1000fdc9 	b	8d0 <execute_cfa_program+0xf4>
    11ac:	ae2405fc 	sw	a0,1532(s1)
    11b0:	89040003 	lwl	a0,3(t0)
    11b4:	99040000 	lwr	a0,0(t0)
    11b8:	1000fff3 	b	1188 <execute_cfa_program+0x9ac>
    11bc:	25080008 	addiu	t0,t0,8
    11c0:	91020001 	lbu	v0,1(t0)
    11c4:	91030000 	lbu	v1,0(t0)
    11c8:	25080002 	addiu	t0,t0,2
    11cc:	00021200 	sll	v0,v0,0x8
    11d0:	00431025 	or	v0,v0,v1
    11d4:	1000ffec 	b	1188 <execute_cfa_program+0x9ac>
    11d8:	7c022620 	seh	a0,v0
    11dc:	8f990000 	lw	t9,0(gp)
    11e0:	8fc5002c 	lw	a1,44(s8)
    11e4:	01002021 	move	a0,t0
    11e8:	afc60030 	sw	a2,48(s8)
    11ec:	afcb0034 	sw	t3,52(s8)
    11f0:	27390000 	addiu	t9,t9,0
    11f4:	0320f809 	jalr	t9
    11f8:	afcc0038 	sw	t4,56(s8)
    11fc:	8fdc0010 	lw	gp,16(s8)
    1200:	00404021 	move	t0,v0
    1204:	8fc4001c 	lw	a0,28(s8)
    1208:	8fc60030 	lw	a2,48(s8)
    120c:	8fcb0034 	lw	t3,52(s8)
    1210:	1000ffdd 	b	1188 <execute_cfa_program+0x9ac>
    1214:	8fcc0038 	lw	t4,56(s8)
    1218:	91020001 	lbu	v0,1(t0)
    121c:	91030000 	lbu	v1,0(t0)
    1220:	25080002 	addiu	t0,t0,2
    1224:	00021200 	sll	v0,v0,0x8
    1228:	1000ffd7 	b	1188 <execute_cfa_program+0x9ac>
    122c:	00432025 	or	a0,v0,v1
    1230:	00002021 	move	a0,zero
    1234:	00002821 	move	a1,zero
    1238:	91030000 	lbu	v1,0(t0)
    123c:	25080001 	addiu	t0,t0,1
    1240:	3062007f 	andi	v0,v1,0x7f
    1244:	00a21004 	sllv	v0,v0,a1
    1248:	7c031c20 	seb	v1,v1
    124c:	00822025 	or	a0,a0,v0
    1250:	0460fff9 	bltz	v1,1238 <execute_cfa_program+0xa5c>
    1254:	24a50007 	addiu	a1,a1,7
    1258:	1000ffcb 	b	1188 <execute_cfa_program+0x9ac>
    125c:	00000000 	nop
    1260:	1000fdfa 	b	a4c <execute_cfa_program+0x270>
    1264:	8e560300 	lw	s6,768(s2)
    1268:	1000fdf8 	b	a4c <execute_cfa_program+0x270>
    126c:	8e560308 	lw	s6,776(s2)
    1270:	27bdf9f8 	addiu	sp,sp,-1544
    1274:	1000fe6f 	b	c34 <execute_cfa_program+0x458>
    1278:	27a90010 	addiu	t1,sp,16

0000127c <uw_install_context_1>:
    127c:	3c1c0000 	lui	gp,0x0
    1280:	279c0000 	addiu	gp,gp,0
    1284:	0399e021 	addu	gp,gp,t9
    1288:	27bdffc0 	addiu	sp,sp,-64
    128c:	afbf003c 	sw	ra,60(sp)
    1290:	afb60038 	sw	s6,56(sp)
    1294:	afb50034 	sw	s5,52(sp)
    1298:	afb40030 	sw	s4,48(sp)
    129c:	afb3002c 	sw	s3,44(sp)
    12a0:	afb20028 	sw	s2,40(sp)
    12a4:	afb10024 	sw	s1,36(sp)
    12a8:	afb00020 	sw	s0,32(sp)
    12ac:	afbc0010 	sw	gp,16(sp)
    12b0:	8ca2030c 	lw	v0,780(a1)
    12b4:	00a0a021 	move	s4,a1
    12b8:	7c420780 	ext	v0,v0,0x1e,0x1
    12bc:	1040001f 	beqz	v0,133c <uw_install_context_1+0xc0>
    12c0:	00809821 	move	s3,a0
    12c4:	80a20335 	lb	v0,821(a1)
    12c8:	1040001c 	beqz	v0,133c <uw_install_context_1+0xc0>
    12cc:	24a30074 	addiu	v1,a1,116
    12d0:	10600044 	beqz	v1,13e4 <uw_install_context_1+0x168>
    12d4:	8f990000 	lw	t9,0(gp)
    12d8:	8f820000 	lw	v0,0(gp)
    12dc:	00008021 	move	s0,zero
    12e0:	00008821 	move	s1,zero
    12e4:	24520004 	addiu	s2,v0,4
    12e8:	24160004 	li	s6,4
    12ec:	241500bc 	li	s5,188
    12f0:	02701021 	addu	v0,s3,s0
    12f4:	80440318 	lb	a0,792(v0)
    12f8:	02711821 	addu	v1,s3,s1
    12fc:	02911021 	addu	v0,s4,s1
    1300:	8c670000 	lw	a3,0(v1)
    1304:	1480000a 	bnez	a0,1330 <uw_install_context_1+0xb4>
    1308:	8c450000 	lw	a1,0(v0)
    130c:	02901021 	addu	v0,s4,s0
    1310:	80430318 	lb	v1,792(v0)
    1314:	1060000b 	beqz	v1,1344 <uw_install_context_1+0xc8>
    1318:	00000000 	nop
    131c:	10e00009 	beqz	a3,1344 <uw_install_context_1+0xc8>
    1320:	00000000 	nop
    1324:	92420000 	lbu	v0,0(s2)
    1328:	10560025 	beq	v0,s6,13c0 <uw_install_context_1+0x144>
    132c:	00000000 	nop
    1330:	8f990000 	lw	t9,0(gp)
    1334:	0320f809 	jalr	t9
    1338:	00000000 	nop
    133c:	1000ffe4 	b	12d0 <uw_install_context_1+0x54>
    1340:	8e830074 	lw	v1,116(s4)
    1344:	10a00009 	beqz	a1,136c <uw_install_context_1+0xf0>
    1348:	00000000 	nop
    134c:	10e00007 	beqz	a3,136c <uw_install_context_1+0xf0>
    1350:	00000000 	nop
    1354:	10a70005 	beq	a1,a3,136c <uw_install_context_1+0xf0>
    1358:	8f990000 	lw	t9,0(gp)
    135c:	92460000 	lbu	a2,0(s2)
    1360:	0320f809 	jalr	t9
    1364:	00e02021 	move	a0,a3
    1368:	8fbc0010 	lw	gp,16(sp)
    136c:	26100001 	addiu	s0,s0,1
    1370:	26310004 	addiu	s1,s1,4
    1374:	1615ffde 	bne	s0,s5,12f0 <uw_install_context_1+0x74>
    1378:	26520001 	addiu	s2,s2,1
    137c:	8e62030c 	lw	v0,780(s3)
    1380:	7c420780 	ext	v0,v0,0x1e,0x1
    1384:	14400012 	bnez	v0,13d0 <uw_install_context_1+0x154>
    1388:	00000000 	nop
    138c:	8e630074 	lw	v1,116(s3)
    1390:	1060001b 	beqz	v1,1400 <uw_install_context_1+0x184>
    1394:	00001021 	move	v0,zero
    1398:	8fbf003c 	lw	ra,60(sp)
    139c:	8fb60038 	lw	s6,56(sp)
    13a0:	8fb50034 	lw	s5,52(sp)
    13a4:	8fb40030 	lw	s4,48(sp)
    13a8:	8fb3002c 	lw	s3,44(sp)
    13ac:	8fb20028 	lw	s2,40(sp)
    13b0:	8fb10024 	lw	s1,36(sp)
    13b4:	8fb00020 	lw	s0,32(sp)
    13b8:	03e00008 	jr	ra
    13bc:	27bd0040 	addiu	sp,sp,64
    13c0:	afa5001c 	sw	a1,28(sp)
    13c4:	a8e50003 	swl	a1,3(a3)
    13c8:	1000ffe8 	b	136c <uw_install_context_1+0xf0>
    13cc:	b8e50000 	swr	a1,0(a3)
    13d0:	82620335 	lb	v0,821(s3)
    13d4:	1440ffee 	bnez	v0,1390 <uw_install_context_1+0x114>
    13d8:	26630074 	addiu	v1,s3,116
    13dc:	1000ffec 	b	1390 <uw_install_context_1+0x114>
    13e0:	8e630074 	lw	v1,116(s3)
    13e4:	8e8502f4 	lw	a1,756(s4)
    13e8:	02802021 	move	a0,s4
    13ec:	273901dc 	addiu	t9,t9,476
    13f0:	0320f809 	jalr	t9
    13f4:	27a60018 	addiu	a2,sp,24
    13f8:	1000ffb7 	b	12d8 <uw_install_context_1+0x5c>
    13fc:	8fbc0010 	lw	gp,16(sp)
    1400:	8f990000 	lw	t9,0(gp)
    1404:	02802021 	move	a0,s4
    1408:	0320f809 	jalr	t9
    140c:	2405001d 	li	a1,29
    1410:	8e6302f4 	lw	v1,756(s3)
    1414:	8e840314 	lw	a0,788(s4)
    1418:	8fbc0010 	lw	gp,16(sp)
    141c:	00431023 	subu	v0,v0,v1
    1420:	1000ffdd 	b	1398 <uw_install_context_1+0x11c>
    1424:	00441021 	addu	v0,v0,a0

00001428 <execute_stack_op>:
    1428:	3c1c0000 	lui	gp,0x0
    142c:	279c0000 	addiu	gp,gp,0
    1430:	0399e021 	addu	gp,gp,t9
    1434:	27bdfeb0 	addiu	sp,sp,-336
    1438:	afbf014c 	sw	ra,332(sp)
    143c:	afbe0148 	sw	s8,328(sp)
    1440:	afb70144 	sw	s7,324(sp)
    1444:	afb60140 	sw	s6,320(sp)
    1448:	afb5013c 	sw	s5,316(sp)
    144c:	afb40138 	sw	s4,312(sp)
    1450:	afb30134 	sw	s3,308(sp)
    1454:	afb20130 	sw	s2,304(sp)
    1458:	afb1012c 	sw	s1,300(sp)
    145c:	afb00128 	sw	s0,296(sp)
    1460:	afbc0010 	sw	gp,16(sp)
    1464:	0085102b 	sltu	v0,a0,a1
    1468:	00804021 	move	t0,a0
    146c:	00a0a021 	move	s4,a1
    1470:	afa70020 	sw	a3,32(sp)
    1474:	1040019d 	beqz	v0,1aec <execute_stack_op+0x6c4>
    1478:	00c09821 	move	s3,a2
    147c:	8f820000 	lw	v0,0(gp)
    1480:	8f830000 	lw	v1,0(gp)
    1484:	24110001 	li	s1,1
    1488:	245500f4 	addiu	s5,v0,244
    148c:	8f820000 	lw	v0,0(gp)
    1490:	24760004 	addiu	s6,v1,4
    1494:	27b20018 	addiu	s2,sp,24
    1498:	245e0000 	addiu	s8,v0,0
    149c:	27a2001c 	addiu	v0,sp,28
    14a0:	24170004 	li	s7,4
    14a4:	afa20120 	sw	v0,288(sp)
    14a8:	91100000 	lbu	s0,0(t0)
    14ac:	2602fffd 	addiu	v0,s0,-3
    14b0:	304200ff 	andi	v0,v0,0xff
    14b4:	2c430094 	sltiu	v1,v0,148
    14b8:	14600004 	bnez	v1,14cc <execute_stack_op+0xa4>
    14bc:	25080001 	addiu	t0,t0,1
    14c0:	8f990000 	lw	t9,0(gp)
    14c4:	0320f809 	jalr	t9
    14c8:	00000000 	nop
    14cc:	00021080 	sll	v0,v0,0x2
    14d0:	02a21021 	addu	v0,s5,v0
    14d4:	8c430000 	lw	v1,0(v0)
    14d8:	007c1821 	addu	v1,v1,gp
    14dc:	00600008 	jr	v1
    14e0:	00000000 	nop
    14e4:	89050003 	lwl	a1,3(t0)
    14e8:	99050000 	lwr	a1,0(t0)
    14ec:	25080004 	addiu	t0,t0,4
    14f0:	2e220040 	sltiu	v0,s1,64
    14f4:	1040fff2 	beqz	v0,14c0 <execute_stack_op+0x98>
    14f8:	00111080 	sll	v0,s1,0x2
    14fc:	02421021 	addu	v0,s2,v0
    1500:	ac450008 	sw	a1,8(v0)
    1504:	26310001 	addiu	s1,s1,1
    1508:	0114102b 	sltu	v0,t0,s4
    150c:	1440ffe6 	bnez	v0,14a8 <execute_stack_op+0x80>
    1510:	00000000 	nop
    1514:	1220ffea 	beqz	s1,14c0 <execute_stack_op+0x98>
    1518:	2622ffff 	addiu	v0,s1,-1
    151c:	8fbf014c 	lw	ra,332(sp)
    1520:	00021080 	sll	v0,v0,0x2
    1524:	03a21821 	addu	v1,sp,v0
    1528:	8c620020 	lw	v0,32(v1)
    152c:	8fbe0148 	lw	s8,328(sp)
    1530:	8fb70144 	lw	s7,324(sp)
    1534:	8fb60140 	lw	s6,320(sp)
    1538:	8fb5013c 	lw	s5,316(sp)
    153c:	8fb40138 	lw	s4,312(sp)
    1540:	8fb30134 	lw	s3,308(sp)
    1544:	8fb20130 	lw	s2,304(sp)
    1548:	8fb1012c 	lw	s1,300(sp)
    154c:	8fb00128 	lw	s0,296(sp)
    1550:	03e00008 	jr	ra
    1554:	27bd0150 	addiu	sp,sp,336
    1558:	89050003 	lwl	a1,3(t0)
    155c:	99050000 	lwr	a1,0(t0)
    1560:	1000ffe3 	b	14f0 <execute_stack_op+0xc8>
    1564:	25080008 	addiu	t0,t0,8
    1568:	00002821 	move	a1,zero
    156c:	00002021 	move	a0,zero
    1570:	91030000 	lbu	v1,0(t0)
    1574:	25080001 	addiu	t0,t0,1
    1578:	3062007f 	andi	v0,v1,0x7f
    157c:	00821004 	sllv	v0,v0,a0
    1580:	7c031c20 	seb	v1,v1
    1584:	00a22825 	or	a1,a1,v0
    1588:	0460fff9 	bltz	v1,1570 <execute_stack_op+0x148>
    158c:	24840007 	addiu	a0,a0,7
    1590:	28a200bd 	slti	v0,a1,189
    1594:	1040ffcb 	beqz	v0,14c4 <execute_stack_op+0x9c>
    1598:	8f990000 	lw	t9,0(gp)
    159c:	8e64030c 	lw	a0,780(s3)
    15a0:	00051880 	sll	v1,a1,0x2
    15a4:	02631821 	addu	v1,s3,v1
    15a8:	00b61021 	addu	v0,a1,s6
    15ac:	7c840780 	ext	a0,a0,0x1e,0x1
    15b0:	90460000 	lbu	a2,0(v0)
    15b4:	10800005 	beqz	a0,15cc <execute_stack_op+0x1a4>
    15b8:	8c670000 	lw	a3,0(v1)
    15bc:	02651021 	addu	v0,s3,a1
    15c0:	80430318 	lb	v1,792(v0)
    15c4:	1460ffca 	bnez	v1,14f0 <execute_stack_op+0xc8>
    15c8:	00e02821 	move	a1,a3
    15cc:	14d7ffbd 	bne	a2,s7,14c4 <execute_stack_op+0x9c>
    15d0:	8f990000 	lw	t9,0(gp)
    15d4:	1000ffc6 	b	14f0 <execute_stack_op+0xc8>
    15d8:	8ce50000 	lw	a1,0(a3)
    15dc:	01002021 	move	a0,t0
    15e0:	03c0c821 	move	t9,s8
    15e4:	0320f809 	jalr	t9
    15e8:	02402821 	move	a1,s2
    15ec:	2605ff90 	addiu	a1,s0,-112
    15f0:	28a300bd 	slti	v1,a1,189
    15f4:	8fbc0010 	lw	gp,16(sp)
    15f8:	1060ffb1 	beqz	v1,14c0 <execute_stack_op+0x98>
    15fc:	00404021 	move	t0,v0
    1600:	8e64030c 	lw	a0,780(s3)
    1604:	00051880 	sll	v1,a1,0x2
    1608:	02631821 	addu	v1,s3,v1
    160c:	00b61021 	addu	v0,a1,s6
    1610:	7c840780 	ext	a0,a0,0x1e,0x1
    1614:	90460000 	lbu	a2,0(v0)
    1618:	10800005 	beqz	a0,1630 <execute_stack_op+0x208>
    161c:	8c670000 	lw	a3,0(v1)
    1620:	02651021 	addu	v0,s3,a1
    1624:	80430318 	lb	v1,792(v0)
    1628:	14600004 	bnez	v1,163c <execute_stack_op+0x214>
    162c:	00e02021 	move	a0,a3
    1630:	14d7ffa4 	bne	a2,s7,14c4 <execute_stack_op+0x9c>
    1634:	8f990000 	lw	t9,0(gp)
    1638:	8ce40000 	lw	a0,0(a3)
    163c:	8fa20018 	lw	v0,24(sp)
    1640:	1000ffab 	b	14f0 <execute_stack_op+0xc8>
    1644:	00822821 	addu	a1,a0,v0
    1648:	2605ffb0 	addiu	a1,s0,-80
    164c:	28a200bd 	slti	v0,a1,189
    1650:	1440ffd2 	bnez	v0,159c <execute_stack_op+0x174>
    1654:	8f990000 	lw	t9,0(gp)
    1658:	1000ff9a 	b	14c4 <execute_stack_op+0x9c>
    165c:	00000000 	nop
    1660:	1000ffa3 	b	14f0 <execute_stack_op+0xc8>
    1664:	2605ffd0 	addiu	a1,s0,-48
    1668:	91020001 	lbu	v0,1(t0)
    166c:	91030000 	lbu	v1,0(t0)
    1670:	25040002 	addiu	a0,t0,2
    1674:	00021200 	sll	v0,v0,0x8
    1678:	00431025 	or	v0,v0,v1
    167c:	7c021620 	seh	v0,v0
    1680:	00824021 	addu	t0,a0,v0
    1684:	1000ffa0 	b	1508 <execute_stack_op+0xe0>
    1688:	afa20018 	sw	v0,24(sp)
    168c:	1220ff8d 	beqz	s1,14c4 <execute_stack_op+0x9c>
    1690:	8f990000 	lw	t9,0(gp)
    1694:	91020001 	lbu	v0,1(t0)
    1698:	91040000 	lbu	a0,0(t0)
    169c:	2631ffff 	addiu	s1,s1,-1
    16a0:	00111880 	sll	v1,s1,0x2
    16a4:	02431821 	addu	v1,s2,v1
    16a8:	00021200 	sll	v0,v0,0x8
    16ac:	8c650008 	lw	a1,8(v1)
    16b0:	00441025 	or	v0,v0,a0
    16b4:	7c021620 	seh	v0,v0
    16b8:	25080002 	addiu	t0,t0,2
    16bc:	01021821 	addu	v1,t0,v0
    16c0:	0065400b 	movn	t0,v1,a1
    16c4:	1000ff90 	b	1508 <execute_stack_op+0xe0>
    16c8:	afa20018 	sw	v0,24(sp)
    16cc:	2a220002 	slti	v0,s1,2
    16d0:	1440ff7b 	bnez	v0,14c0 <execute_stack_op+0x98>
    16d4:	2604ffe6 	addiu	a0,s0,-26
    16d8:	2631fffe 	addiu	s1,s1,-2
    16dc:	26230001 	addiu	v1,s1,1
    16e0:	00031880 	sll	v1,v1,0x2
    16e4:	308500ff 	andi	a1,a0,0xff
    16e8:	00111080 	sll	v0,s1,0x2
    16ec:	02421021 	addu	v0,s2,v0
    16f0:	02431821 	addu	v1,s2,v1
    16f4:	2ca40015 	sltiu	a0,a1,21
    16f8:	8c470008 	lw	a3,8(v0)
    16fc:	1080ff70 	beqz	a0,14c0 <execute_stack_op+0x98>
    1700:	8c660008 	lw	a2,8(v1)
    1704:	8f830000 	lw	v1,0(gp)
    1708:	00051080 	sll	v0,a1,0x2
    170c:	24630344 	addiu	v1,v1,836
    1710:	00621021 	addu	v0,v1,v0
    1714:	8c430000 	lw	v1,0(v0)
    1718:	007c1821 	addu	v1,v1,gp
    171c:	00600008 	jr	v1
    1720:	00000000 	nop
    1724:	2a220003 	slti	v0,s1,3
    1728:	1440ff65 	bnez	v0,14c0 <execute_stack_op+0x98>
    172c:	2623ffff 	addiu	v1,s1,-1
    1730:	2624fffe 	addiu	a0,s1,-2
    1734:	2625fffd 	addiu	a1,s1,-3
    1738:	00031880 	sll	v1,v1,0x2
    173c:	00052880 	sll	a1,a1,0x2
    1740:	00042080 	sll	a0,a0,0x2
    1744:	02431821 	addu	v1,s2,v1
    1748:	02452821 	addu	a1,s2,a1
    174c:	02442021 	addu	a0,s2,a0
    1750:	8c670008 	lw	a3,8(v1)
    1754:	8ca60008 	lw	a2,8(a1)
    1758:	8c820008 	lw	v0,8(a0)
    175c:	ac620008 	sw	v0,8(v1)
    1760:	ac860008 	sw	a2,8(a0)
    1764:	1000ff68 	b	1508 <execute_stack_op+0xe0>
    1768:	aca70008 	sw	a3,8(a1)
    176c:	2a220002 	slti	v0,s1,2
    1770:	1440ff53 	bnez	v0,14c0 <execute_stack_op+0x98>
    1774:	2623ffff 	addiu	v1,s1,-1
    1778:	2624fffe 	addiu	a0,s1,-2
    177c:	00031880 	sll	v1,v1,0x2
    1780:	00042080 	sll	a0,a0,0x2
    1784:	02431821 	addu	v1,s2,v1
    1788:	02442021 	addu	a0,s2,a0
    178c:	8c650008 	lw	a1,8(v1)
    1790:	8c820008 	lw	v0,8(a0)
    1794:	ac620008 	sw	v0,8(v1)
    1798:	1000ff5b 	b	1508 <execute_stack_op+0xe0>
    179c:	ac850008 	sw	a1,8(a0)
    17a0:	91030000 	lbu	v1,0(t0)
    17a4:	2624ffff 	addiu	a0,s1,-1
    17a8:	0064102a 	slt	v0,v1,a0
    17ac:	1040ff44 	beqz	v0,14c0 <execute_stack_op+0x98>
    17b0:	afa30018 	sw	v1,24(sp)
    17b4:	00831023 	subu	v0,a0,v1
    17b8:	00021080 	sll	v0,v0,0x2
    17bc:	02421021 	addu	v0,s2,v0
    17c0:	25080001 	addiu	t0,t0,1
    17c4:	1000ff4a 	b	14f0 <execute_stack_op+0xc8>
    17c8:	8c450008 	lw	a1,8(v0)
    17cc:	2a220002 	slti	v0,s1,2
    17d0:	1440ff3b 	bnez	v0,14c0 <execute_stack_op+0x98>
    17d4:	2622fffe 	addiu	v0,s1,-2
    17d8:	00021080 	sll	v0,v0,0x2
    17dc:	02421021 	addu	v0,s2,v0
    17e0:	1000ff43 	b	14f0 <execute_stack_op+0xc8>
    17e4:	8c450008 	lw	a1,8(v0)
    17e8:	1220ff36 	beqz	s1,14c4 <execute_stack_op+0x9c>
    17ec:	8f990000 	lw	t9,0(gp)
    17f0:	1000ff45 	b	1508 <execute_stack_op+0xe0>
    17f4:	2631ffff 	addiu	s1,s1,-1
    17f8:	1220ff31 	beqz	s1,14c0 <execute_stack_op+0x98>
    17fc:	2622ffff 	addiu	v0,s1,-1
    1800:	00021080 	sll	v0,v0,0x2
    1804:	02421021 	addu	v0,s2,v0
    1808:	1000ff39 	b	14f0 <execute_stack_op+0xc8>
    180c:	8c450008 	lw	a1,8(v0)
    1810:	8fa50120 	lw	a1,288(sp)
    1814:	03c0c821 	move	t9,s8
    1818:	0320f809 	jalr	t9
    181c:	01002021 	move	a0,t0
    1820:	8fbc0010 	lw	gp,16(sp)
    1824:	00404021 	move	t0,v0
    1828:	1000ff31 	b	14f0 <execute_stack_op+0xc8>
    182c:	8fa5001c 	lw	a1,28(sp)
    1830:	00002821 	move	a1,zero
    1834:	00002021 	move	a0,zero
    1838:	91030000 	lbu	v1,0(t0)
    183c:	25080001 	addiu	t0,t0,1
    1840:	3062007f 	andi	v0,v1,0x7f
    1844:	00821004 	sllv	v0,v0,a0
    1848:	7c031c20 	seb	v1,v1
    184c:	00a22825 	or	a1,a1,v0
    1850:	0460fff9 	bltz	v1,1838 <execute_stack_op+0x410>
    1854:	24840007 	addiu	a0,a0,7
    1858:	1000ff26 	b	14f4 <execute_stack_op+0xcc>
    185c:	2e220040 	sltiu	v0,s1,64
    1860:	00008021 	move	s0,zero
    1864:	00002021 	move	a0,zero
    1868:	91030000 	lbu	v1,0(t0)
    186c:	25080001 	addiu	t0,t0,1
    1870:	3062007f 	andi	v0,v1,0x7f
    1874:	00821004 	sllv	v0,v0,a0
    1878:	7c031c20 	seb	v1,v1
    187c:	02028025 	or	s0,s0,v0
    1880:	0460fff9 	bltz	v1,1868 <execute_stack_op+0x440>
    1884:	24840007 	addiu	a0,a0,7
    1888:	01002021 	move	a0,t0
    188c:	03c0c821 	move	t9,s8
    1890:	0320f809 	jalr	t9
    1894:	02402821 	move	a1,s2
    1898:	2a0300bd 	slti	v1,s0,189
    189c:	8fbc0010 	lw	gp,16(sp)
    18a0:	1060ff07 	beqz	v1,14c0 <execute_stack_op+0x98>
    18a4:	00404021 	move	t0,v0
    18a8:	8e64030c 	lw	a0,780(s3)
    18ac:	00101880 	sll	v1,s0,0x2
    18b0:	02631821 	addu	v1,s3,v1
    18b4:	02161021 	addu	v0,s0,s6
    18b8:	7c840780 	ext	a0,a0,0x1e,0x1
    18bc:	90450000 	lbu	a1,0(v0)
    18c0:	10800005 	beqz	a0,18d8 <execute_stack_op+0x4b0>
    18c4:	8c660000 	lw	a2,0(v1)
    18c8:	02701021 	addu	v0,s3,s0
    18cc:	80430318 	lb	v1,792(v0)
    18d0:	1460ff5a 	bnez	v1,163c <execute_stack_op+0x214>
    18d4:	00c02021 	move	a0,a2
    18d8:	14b7fefa 	bne	a1,s7,14c4 <execute_stack_op+0x9c>
    18dc:	8f990000 	lw	t9,0(gp)
    18e0:	8cc40000 	lw	a0,0(a2)
    18e4:	8fa20018 	lw	v0,24(sp)
    18e8:	1000ff01 	b	14f0 <execute_stack_op+0xc8>
    18ec:	00822821 	addu	a1,a0,v0
    18f0:	91020001 	lbu	v0,1(t0)
    18f4:	91030000 	lbu	v1,0(t0)
    18f8:	25080002 	addiu	t0,t0,2
    18fc:	00021200 	sll	v0,v0,0x8
    1900:	00431025 	or	v0,v0,v1
    1904:	1000fefa 	b	14f0 <execute_stack_op+0xc8>
    1908:	7c022e20 	seh	a1,v0
    190c:	81050000 	lb	a1,0(t0)
    1910:	1000fef7 	b	14f0 <execute_stack_op+0xc8>
    1914:	25080001 	addiu	t0,t0,1
    1918:	91050000 	lbu	a1,0(t0)
    191c:	1000fef4 	b	14f0 <execute_stack_op+0xc8>
    1920:	25080001 	addiu	t0,t0,1
    1924:	1220fee7 	beqz	s1,14c4 <execute_stack_op+0x9c>
    1928:	8f990000 	lw	t9,0(gp)
    192c:	2631ffff 	addiu	s1,s1,-1
    1930:	00111080 	sll	v0,s1,0x2
    1934:	02421021 	addu	v0,s2,v0
    1938:	8c450008 	lw	a1,8(v0)
    193c:	2402001f 	li	v0,31
    1940:	12020022 	beq	s0,v0,19cc <execute_stack_op+0x5a4>
    1944:	2e020020 	sltiu	v0,s0,32
    1948:	14400010 	bnez	v0,198c <execute_stack_op+0x564>
    194c:	24030006 	li	v1,6
    1950:	24020023 	li	v0,35
    1954:	1202002a 	beq	s0,v0,1a00 <execute_stack_op+0x5d8>
    1958:	24030094 	li	v1,148
    195c:	1203001d 	beq	s0,v1,19d4 <execute_stack_op+0x5ac>
    1960:	24190020 	li	t9,32
    1964:	1619fed7 	bne	s0,t9,14c4 <execute_stack_op+0x9c>
    1968:	8f990000 	lw	t9,0(gp)
    196c:	1000fee0 	b	14f0 <execute_stack_op+0xc8>
    1970:	00052827 	nor	a1,zero,a1
    1974:	91020001 	lbu	v0,1(t0)
    1978:	91030000 	lbu	v1,0(t0)
    197c:	25080002 	addiu	t0,t0,2
    1980:	00021200 	sll	v0,v0,0x8
    1984:	1000feda 	b	14f0 <execute_stack_op+0xc8>
    1988:	00432825 	or	a1,v0,v1
    198c:	1203000b 	beq	s0,v1,19bc <execute_stack_op+0x594>
    1990:	24190019 	li	t9,25
    1994:	1619fecb 	bne	s0,t9,14c4 <execute_stack_op+0x9c>
    1998:	8f990000 	lw	t9,0(gp)
    199c:	000517c3 	sra	v0,a1,0x1f
    19a0:	00a22826 	xor	a1,a1,v0
    19a4:	1000fed2 	b	14f0 <execute_stack_op+0xc8>
    19a8:	00a22823 	subu	a1,a1,v0
    19ac:	10770003 	beq	v1,s7,19bc <execute_stack_op+0x594>
    19b0:	24020008 	li	v0,8
    19b4:	1462fec3 	bne	v1,v0,14c4 <execute_stack_op+0x9c>
    19b8:	8f990000 	lw	t9,0(gp)
    19bc:	88a20003 	lwl	v0,3(a1)
    19c0:	98a20000 	lwr	v0,0(a1)
    19c4:	1000feca 	b	14f0 <execute_stack_op+0xc8>
    19c8:	00402821 	move	a1,v0
    19cc:	1000fec8 	b	14f0 <execute_stack_op+0xc8>
    19d0:	00052823 	negu	a1,a1
    19d4:	91030000 	lbu	v1,0(t0)
    19d8:	24020002 	li	v0,2
    19dc:	10620014 	beq	v1,v0,1a30 <execute_stack_op+0x608>
    19e0:	25080001 	addiu	t0,t0,1
    19e4:	2c620003 	sltiu	v0,v1,3
    19e8:	1040fff0 	beqz	v0,19ac <execute_stack_op+0x584>
    19ec:	24190001 	li	t9,1
    19f0:	1479feb4 	bne	v1,t9,14c4 <execute_stack_op+0x9c>
    19f4:	8f990000 	lw	t9,0(gp)
    19f8:	1000febd 	b	14f0 <execute_stack_op+0xc8>
    19fc:	90a50000 	lbu	a1,0(a1)
    1a00:	00003021 	move	a2,zero
    1a04:	00002021 	move	a0,zero
    1a08:	91030000 	lbu	v1,0(t0)
    1a0c:	25080001 	addiu	t0,t0,1
    1a10:	3062007f 	andi	v0,v1,0x7f
    1a14:	00821004 	sllv	v0,v0,a0
    1a18:	7c031c20 	seb	v1,v1
    1a1c:	00c23025 	or	a2,a2,v0
    1a20:	0460fff9 	bltz	v1,1a08 <execute_stack_op+0x5e0>
    1a24:	24840007 	addiu	a0,a0,7
    1a28:	1000feb1 	b	14f0 <execute_stack_op+0xc8>
    1a2c:	00a62821 	addu	a1,a1,a2
    1a30:	90a20001 	lbu	v0,1(a1)
    1a34:	90a30000 	lbu	v1,0(a1)
    1a38:	00021200 	sll	v0,v0,0x8
    1a3c:	1000feac 	b	14f0 <execute_stack_op+0xc8>
    1a40:	00432825 	or	a1,v0,v1
    1a44:	1000feaa 	b	14f0 <execute_stack_op+0xc8>
    1a48:	00c72824 	and	a1,a2,a3
    1a4c:	00e6001a 	div	zero,a3,a2
    1a50:	00c001f4 	teq	a2,zero,0x7
    1a54:	1000fea6 	b	14f0 <execute_stack_op+0xc8>
    1a58:	00002812 	mflo	a1
    1a5c:	1000fea4 	b	14f0 <execute_stack_op+0xc8>
    1a60:	00e62823 	subu	a1,a3,a2
    1a64:	00e6001a 	div	zero,a3,a2
    1a68:	00c001f4 	teq	a2,zero,0x7
    1a6c:	1000fea0 	b	14f0 <execute_stack_op+0xc8>
    1a70:	00002810 	mfhi	a1
    1a74:	1000fe9e 	b	14f0 <execute_stack_op+0xc8>
    1a78:	70c72802 	mul	a1,a2,a3
    1a7c:	1000fe9c 	b	14f0 <execute_stack_op+0xc8>
    1a80:	00c72825 	or	a1,a2,a3
    1a84:	1000fe9a 	b	14f0 <execute_stack_op+0xc8>
    1a88:	00c72821 	addu	a1,a2,a3
    1a8c:	1000fe98 	b	14f0 <execute_stack_op+0xc8>
    1a90:	00c72804 	sllv	a1,a3,a2
    1a94:	1000fe96 	b	14f0 <execute_stack_op+0xc8>
    1a98:	00c72806 	srlv	a1,a3,a2
    1a9c:	1000fe94 	b	14f0 <execute_stack_op+0xc8>
    1aa0:	00c72807 	srav	a1,a3,a2
    1aa4:	1000fe92 	b	14f0 <execute_stack_op+0xc8>
    1aa8:	00c72826 	xor	a1,a2,a3
    1aac:	00c71026 	xor	v0,a2,a3
    1ab0:	1000fe8f 	b	14f0 <execute_stack_op+0xc8>
    1ab4:	2c450001 	sltiu	a1,v0,1
    1ab8:	00c7102a 	slt	v0,a2,a3
    1abc:	1000fe8c 	b	14f0 <execute_stack_op+0xc8>
    1ac0:	38450001 	xori	a1,v0,0x1
    1ac4:	1000fe8a 	b	14f0 <execute_stack_op+0xc8>
    1ac8:	00e6282a 	slt	a1,a3,a2
    1acc:	00e6102a 	slt	v0,a3,a2
    1ad0:	1000fe87 	b	14f0 <execute_stack_op+0xc8>
    1ad4:	38450001 	xori	a1,v0,0x1
    1ad8:	1000fe85 	b	14f0 <execute_stack_op+0xc8>
    1adc:	00c7282a 	slt	a1,a2,a3
    1ae0:	00c71026 	xor	v0,a2,a3
    1ae4:	1000fe82 	b	14f0 <execute_stack_op+0xc8>
    1ae8:	0002282b 	sltu	a1,zero,v0
    1aec:	1000fe8b 	b	151c <execute_stack_op+0xf4>
    1af0:	00001021 	move	v0,zero

00001af4 <uw_update_context_1>:
    1af4:	3c1c0000 	lui	gp,0x0
    1af8:	279c0000 	addiu	gp,gp,0
    1afc:	0399e021 	addu	gp,gp,t9
    1b00:	27bdfbd0 	addiu	sp,sp,-1072
    1b04:	afbf042c 	sw	ra,1068(sp)
    1b08:	afbe0428 	sw	s8,1064(sp)
    1b0c:	afb70424 	sw	s7,1060(sp)
    1b10:	afb60420 	sw	s6,1056(sp)
    1b14:	afb5041c 	sw	s5,1052(sp)
    1b18:	afb40418 	sw	s4,1048(sp)
    1b1c:	afb30414 	sw	s3,1044(sp)
    1b20:	afb20410 	sw	s2,1040(sp)
    1b24:	afb1040c 	sw	s1,1036(sp)
    1b28:	afb00408 	sw	s0,1032(sp)
    1b2c:	afbc0010 	sw	gp,16(sp)
    1b30:	27a2001c 	addiu	v0,sp,28
    1b34:	0080a821 	move	s5,a0
    1b38:	afa203fc 	sw	v0,1020(sp)
    1b3c:	afa50434 	sw	a1,1076(sp)
    1b40:	00803021 	move	a2,a0
    1b44:	00403821 	move	a3,v0
    1b48:	248803d0 	addiu	t0,a0,976
    1b4c:	8cc20000 	lw	v0,0(a2)
    1b50:	8cc30004 	lw	v1,4(a2)
    1b54:	8cc40008 	lw	a0,8(a2)
    1b58:	8cc5000c 	lw	a1,12(a2)
    1b5c:	24c60010 	addiu	a2,a2,16
    1b60:	ace20000 	sw	v0,0(a3)
    1b64:	ace30004 	sw	v1,4(a3)
    1b68:	ace40008 	sw	a0,8(a3)
    1b6c:	ace5000c 	sw	a1,12(a3)
    1b70:	14c8fff6 	bne	a2,t0,1b4c <uw_update_context_1+0x58>
    1b74:	24e70010 	addiu	a3,a3,16
    1b78:	8cc20004 	lw	v0,4(a2)
    1b7c:	8cc30000 	lw	v1,0(a2)
    1b80:	ace20004 	sw	v0,4(a3)
    1b84:	ace30000 	sw	v1,0(a3)
    1b88:	8fa20328 	lw	v0,808(sp)
    1b8c:	7c420780 	ext	v0,v0,0x1e,0x1
    1b90:	10400004 	beqz	v0,1ba4 <uw_update_context_1+0xb0>
    1b94:	8fa30090 	lw	v1,144(sp)
    1b98:	83a20351 	lb	v0,849(sp)
    1b9c:	10400013 	beqz	v0,1bec <uw_update_context_1+0xf8>
    1ba0:	27a30090 	addiu	v1,sp,144
    1ba4:	10600103 	beqz	v1,1fb4 <uw_update_context_1+0x4c0>
    1ba8:	8f990000 	lw	t9,0(gp)
    1bac:	8ea2030c 	lw	v0,780(s5)
    1bb0:	7c420780 	ext	v0,v0,0x1e,0x1
    1bb4:	10400003 	beqz	v0,1bc4 <uw_update_context_1+0xd0>
    1bb8:	8fa40434 	lw	a0,1076(sp)
    1bbc:	a2a00335 	sb	zero,821(s5)
    1bc0:	8fa40434 	lw	a0,1076(sp)
    1bc4:	24020001 	li	v0,1
    1bc8:	aea00074 	sw	zero,116(s5)
    1bcc:	8c8305f8 	lw	v1,1528(a0)
    1bd0:	106200ca 	beq	v1,v0,1efc <uw_update_context_1+0x408>
    1bd4:	24020002 	li	v0,2
    1bd8:	10620006 	beq	v1,v0,1bf4 <uw_update_context_1+0x100>
    1bdc:	8fa60434 	lw	a2,1076(sp)
    1be0:	8f990000 	lw	t9,0(gp)
    1be4:	0320f809 	jalr	t9
    1be8:	00000000 	nop
    1bec:	1000ffed 	b	1ba4 <uw_update_context_1+0xb0>
    1bf0:	8fa30090 	lw	v1,144(sp)
    1bf4:	00002821 	move	a1,zero
    1bf8:	8cc405f4 	lw	a0,1524(a2)
    1bfc:	00003021 	move	a2,zero
    1c00:	90830000 	lbu	v1,0(a0)
    1c04:	24840001 	addiu	a0,a0,1
    1c08:	3062007f 	andi	v0,v1,0x7f
    1c0c:	00a21004 	sllv	v0,v0,a1
    1c10:	7c031c20 	seb	v1,v1
    1c14:	00c23025 	or	a2,a2,v0
    1c18:	0460fff9 	bltz	v1,1c00 <uw_update_context_1+0x10c>
    1c1c:	24a50007 	addiu	a1,a1,7
    1c20:	8f990000 	lw	t9,0(gp)
    1c24:	00862821 	addu	a1,a0,a2
    1c28:	8fa603fc 	lw	a2,1020(sp)
    1c2c:	27391428 	addiu	t9,t9,5160
    1c30:	0320f809 	jalr	t9
    1c34:	00003821 	move	a3,zero
    1c38:	8fbc0010 	lw	gp,16(sp)
    1c3c:	0040a021 	move	s4,v0
    1c40:	8f830000 	lw	v1,0(gp)
    1c44:	24630004 	addiu	v1,v1,4
    1c48:	afa303f8 	sw	v1,1016(sp)
    1c4c:	8f820000 	lw	v0,0(gp)
    1c50:	8fb90434 	lw	t9,1076(sp)
    1c54:	8fb303f8 	lw	s3,1016(sp)
    1c58:	245700c1 	addiu	s7,v0,193
    1c5c:	27a20018 	addiu	v0,sp,24
    1c60:	aeb402f4 	sw	s4,756(s5)
    1c64:	27300004 	addiu	s0,t9,4
    1c68:	02a09021 	move	s2,s5
    1c6c:	02a08821 	move	s1,s5
    1c70:	241e0004 	li	s8,4
    1c74:	3c164000 	lui	s6,0x4000
    1c78:	afa20400 	sw	v0,1024(sp)
    1c7c:	8e030000 	lw	v1,0(s0)
    1c80:	2c620006 	sltiu	v0,v1,6
    1c84:	1040001e 	beqz	v0,1d00 <uw_update_context_1+0x20c>
    1c88:	00031080 	sll	v0,v1,0x2
    1c8c:	8f830000 	lw	v1,0(gp)
    1c90:	24630398 	addiu	v1,v1,920
    1c94:	00621021 	addu	v0,v1,v0
    1c98:	8c430000 	lw	v1,0(v0)
    1c9c:	007c1821 	addu	v1,v1,gp
    1ca0:	00600008 	jr	v1
    1ca4:	00000000 	nop
    1ca8:	288200bd 	slti	v0,a0,189
    1cac:	1040ffcc 	beqz	v0,1be0 <uw_update_context_1+0xec>
    1cb0:	8fb90400 	lw	t9,1024(sp)
    1cb4:	00041080 	sll	v0,a0,0x2
    1cb8:	03221021 	addu	v0,t9,v0
    1cbc:	8c450004 	lw	a1,4(v0)
    1cc0:	8fa203f8 	lw	v0,1016(sp)
    1cc4:	00441821 	addu	v1,v0,a0
    1cc8:	8fa20328 	lw	v0,808(sp)
    1ccc:	90630000 	lbu	v1,0(v1)
    1cd0:	00561024 	and	v0,v0,s6
    1cd4:	14400004 	bnez	v0,1ce8 <uw_update_context_1+0x1f4>
    1cd8:	00a02021 	move	a0,a1
    1cdc:	147effc1 	bne	v1,s8,1be4 <uw_update_context_1+0xf0>
    1ce0:	8f990000 	lw	t9,0(gp)
    1ce4:	8ca40000 	lw	a0,0(a1)
    1ce8:	92620000 	lbu	v0,0(s3)
    1cec:	145effbd 	bne	v0,s8,1be4 <uw_update_context_1+0xf0>
    1cf0:	8f990000 	lw	t9,0(gp)
    1cf4:	24030001 	li	v1,1
    1cf8:	ae240000 	sw	a0,0(s1)
    1cfc:	a2430318 	sb	v1,792(s2)
    1d00:	26730001 	addiu	s3,s3,1
    1d04:	26100008 	addiu	s0,s0,8
    1d08:	26520001 	addiu	s2,s2,1
    1d0c:	1677ffdb 	bne	s3,s7,1c7c <uw_update_context_1+0x188>
    1d10:	26310004 	addiu	s1,s1,4
    1d14:	8fa30434 	lw	v1,1076(sp)
    1d18:	90620613 	lbu	v0,1555(v1)
    1d1c:	14400095 	bnez	v0,1f74 <uw_update_context_1+0x480>
    1d20:	3c027fff 	lui	v0,0x7fff
    1d24:	8ea3030c 	lw	v1,780(s5)
    1d28:	8fbf042c 	lw	ra,1068(sp)
    1d2c:	3442ffff 	ori	v0,v0,0xffff
    1d30:	00621824 	and	v1,v1,v0
    1d34:	aea3030c 	sw	v1,780(s5)
    1d38:	8fbe0428 	lw	s8,1064(sp)
    1d3c:	8fb70424 	lw	s7,1060(sp)
    1d40:	8fb60420 	lw	s6,1056(sp)
    1d44:	8fb5041c 	lw	s5,1052(sp)
    1d48:	8fb40418 	lw	s4,1048(sp)
    1d4c:	8fb30414 	lw	s3,1044(sp)
    1d50:	8fb20410 	lw	s2,1040(sp)
    1d54:	8fb1040c 	lw	s1,1036(sp)
    1d58:	8fb00408 	lw	s0,1032(sp)
    1d5c:	03e00008 	jr	ra
    1d60:	27bd0430 	addiu	sp,sp,1072
    1d64:	8e04fffc 	lw	a0,-4(s0)
    1d68:	00003021 	move	a2,zero
    1d6c:	00002821 	move	a1,zero
    1d70:	90830000 	lbu	v1,0(a0)
    1d74:	24840001 	addiu	a0,a0,1
    1d78:	3062007f 	andi	v0,v1,0x7f
    1d7c:	00a21004 	sllv	v0,v0,a1
    1d80:	7c031c20 	seb	v1,v1
    1d84:	00c23025 	or	a2,a2,v0
    1d88:	0460fff9 	bltz	v1,1d70 <uw_update_context_1+0x27c>
    1d8c:	24a50007 	addiu	a1,a1,7
    1d90:	8f990000 	lw	t9,0(gp)
    1d94:	00862821 	addu	a1,a0,a2
    1d98:	8fa603fc 	lw	a2,1020(sp)
    1d9c:	27391428 	addiu	t9,t9,5160
    1da0:	0320f809 	jalr	t9
    1da4:	02803821 	move	a3,s4
    1da8:	92630000 	lbu	v1,0(s3)
    1dac:	147eff8c 	bne	v1,s8,1be0 <uw_update_context_1+0xec>
    1db0:	8fbc0010 	lw	gp,16(sp)
    1db4:	ae220000 	sw	v0,0(s1)
    1db8:	26730001 	addiu	s3,s3,1
    1dbc:	24020001 	li	v0,1
    1dc0:	a2420318 	sb	v0,792(s2)
    1dc4:	26100008 	addiu	s0,s0,8
    1dc8:	26520001 	addiu	s2,s2,1
    1dcc:	1677ffab 	bne	s3,s7,1c7c <uw_update_context_1+0x188>
    1dd0:	26310004 	addiu	s1,s1,4
    1dd4:	1000ffd0 	b	1d18 <uw_update_context_1+0x224>
    1dd8:	8fa30434 	lw	v1,1076(sp)
    1ddc:	92620000 	lbu	v0,0(s3)
    1de0:	145eff7f 	bne	v0,s8,1be0 <uw_update_context_1+0xec>
    1de4:	8e03fffc 	lw	v1,-4(s0)
    1de8:	02831021 	addu	v0,s4,v1
    1dec:	ae220000 	sw	v0,0(s1)
    1df0:	26730001 	addiu	s3,s3,1
    1df4:	24020001 	li	v0,1
    1df8:	a2420318 	sb	v0,792(s2)
    1dfc:	26100008 	addiu	s0,s0,8
    1e00:	26520001 	addiu	s2,s2,1
    1e04:	1677ff9d 	bne	s3,s7,1c7c <uw_update_context_1+0x188>
    1e08:	26310004 	addiu	s1,s1,4
    1e0c:	1000ffc2 	b	1d18 <uw_update_context_1+0x224>
    1e10:	8fa30434 	lw	v1,1076(sp)
    1e14:	8e04fffc 	lw	a0,-4(s0)
    1e18:	00003021 	move	a2,zero
    1e1c:	00002821 	move	a1,zero
    1e20:	90830000 	lbu	v1,0(a0)
    1e24:	24840001 	addiu	a0,a0,1
    1e28:	3062007f 	andi	v0,v1,0x7f
    1e2c:	00a21004 	sllv	v0,v0,a1
    1e30:	7c031c20 	seb	v1,v1
    1e34:	00c23025 	or	a2,a2,v0
    1e38:	0460fff9 	bltz	v1,1e20 <uw_update_context_1+0x32c>
    1e3c:	24a50007 	addiu	a1,a1,7
    1e40:	8f990000 	lw	t9,0(gp)
    1e44:	00862821 	addu	a1,a0,a2
    1e48:	8fa603fc 	lw	a2,1020(sp)
    1e4c:	27391428 	addiu	t9,t9,5160
    1e50:	0320f809 	jalr	t9
    1e54:	02803821 	move	a3,s4
    1e58:	8ea3030c 	lw	v1,780(s5)
    1e5c:	00761824 	and	v1,v1,s6
    1e60:	10600002 	beqz	v1,1e6c <uw_update_context_1+0x378>
    1e64:	8fbc0010 	lw	gp,16(sp)
    1e68:	a2400318 	sb	zero,792(s2)
    1e6c:	26730001 	addiu	s3,s3,1
    1e70:	ae220000 	sw	v0,0(s1)
    1e74:	26100008 	addiu	s0,s0,8
    1e78:	26520001 	addiu	s2,s2,1
    1e7c:	1677ff7f 	bne	s3,s7,1c7c <uw_update_context_1+0x188>
    1e80:	26310004 	addiu	s1,s1,4
    1e84:	1000ffa4 	b	1d18 <uw_update_context_1+0x224>
    1e88:	8fa30434 	lw	v1,1076(sp)
    1e8c:	8e04fffc 	lw	a0,-4(s0)
    1e90:	8fa60400 	lw	a2,1024(sp)
    1e94:	00c41021 	addu	v0,a2,a0
    1e98:	8043031c 	lb	v1,796(v0)
    1e9c:	1460ff82 	bnez	v1,1ca8 <uw_update_context_1+0x1b4>
    1ea0:	00041080 	sll	v0,a0,0x2
    1ea4:	8ea3030c 	lw	v1,780(s5)
    1ea8:	8fa40400 	lw	a0,1024(sp)
    1eac:	00761824 	and	v1,v1,s6
    1eb0:	00821021 	addu	v0,a0,v0
    1eb4:	1060ffed 	beqz	v1,1e6c <uw_update_context_1+0x378>
    1eb8:	8c420004 	lw	v0,4(v0)
    1ebc:	1000ffeb 	b	1e6c <uw_update_context_1+0x378>
    1ec0:	a2400318 	sb	zero,792(s2)
    1ec4:	8ea2030c 	lw	v0,780(s5)
    1ec8:	00561024 	and	v0,v0,s6
    1ecc:	10400002 	beqz	v0,1ed8 <uw_update_context_1+0x3e4>
    1ed0:	8e03fffc 	lw	v1,-4(s0)
    1ed4:	a2400318 	sb	zero,792(s2)
    1ed8:	02831021 	addu	v0,s4,v1
    1edc:	26730001 	addiu	s3,s3,1
    1ee0:	ae220000 	sw	v0,0(s1)
    1ee4:	26100008 	addiu	s0,s0,8
    1ee8:	26520001 	addiu	s2,s2,1
    1eec:	1677ff63 	bne	s3,s7,1c7c <uw_update_context_1+0x188>
    1ef0:	26310004 	addiu	s1,s1,4
    1ef4:	1000ff88 	b	1d18 <uw_update_context_1+0x224>
    1ef8:	8fa30434 	lw	v1,1076(sp)
    1efc:	8fa60434 	lw	a2,1076(sp)
    1f00:	8cc505f0 	lw	a1,1520(a2)
    1f04:	28a200bd 	slti	v0,a1,189
    1f08:	1040ff35 	beqz	v0,1be0 <uw_update_context_1+0xec>
    1f0c:	00052080 	sll	a0,a1,0x2
    1f10:	8f830000 	lw	v1,0(gp)
    1f14:	27a70018 	addiu	a3,sp,24
    1f18:	24630004 	addiu	v1,v1,4
    1f1c:	afa303f8 	sw	v1,1016(sp)
    1f20:	8fb903f8 	lw	t9,1016(sp)
    1f24:	8fa30328 	lw	v1,808(sp)
    1f28:	00e42021 	addu	a0,a3,a0
    1f2c:	03251021 	addu	v0,t9,a1
    1f30:	7c630780 	ext	v1,v1,0x1e,0x1
    1f34:	90460000 	lbu	a2,0(v0)
    1f38:	10600009 	beqz	v1,1f60 <uw_update_context_1+0x46c>
    1f3c:	8c840004 	lw	a0,4(a0)
    1f40:	00e51021 	addu	v0,a3,a1
    1f44:	8043031c 	lb	v1,796(v0)
    1f48:	10600005 	beqz	v1,1f60 <uw_update_context_1+0x46c>
    1f4c:	00803821 	move	a3,a0
    1f50:	8fa30434 	lw	v1,1076(sp)
    1f54:	8c6205ec 	lw	v0,1516(v1)
    1f58:	1000ff3c 	b	1c4c <uw_update_context_1+0x158>
    1f5c:	00e2a021 	addu	s4,a3,v0
    1f60:	24020004 	li	v0,4
    1f64:	14c2ff1f 	bne	a2,v0,1be4 <uw_update_context_1+0xf0>
    1f68:	8f990000 	lw	t9,0(gp)
    1f6c:	1000fff8 	b	1f50 <uw_update_context_1+0x45c>
    1f70:	8c870000 	lw	a3,0(a0)
    1f74:	8ea2030c 	lw	v0,780(s5)
    1f78:	8fbf042c 	lw	ra,1068(sp)
    1f7c:	3c038000 	lui	v1,0x8000
    1f80:	00431025 	or	v0,v0,v1
    1f84:	aea2030c 	sw	v0,780(s5)
    1f88:	8fbe0428 	lw	s8,1064(sp)
    1f8c:	8fb70424 	lw	s7,1060(sp)
    1f90:	8fb60420 	lw	s6,1056(sp)
    1f94:	8fb5041c 	lw	s5,1052(sp)
    1f98:	8fb40418 	lw	s4,1048(sp)
    1f9c:	8fb30414 	lw	s3,1044(sp)
    1fa0:	8fb20410 	lw	s2,1040(sp)
    1fa4:	8fb1040c 	lw	s1,1036(sp)
    1fa8:	8fb00408 	lw	s0,1032(sp)
    1fac:	03e00008 	jr	ra
    1fb0:	27bd0430 	addiu	sp,sp,1072
    1fb4:	8ea502f4 	lw	a1,756(s5)
    1fb8:	8fa403fc 	lw	a0,1020(sp)
    1fbc:	273901dc 	addiu	t9,t9,476
    1fc0:	0320f809 	jalr	t9
    1fc4:	27a60018 	addiu	a2,sp,24
    1fc8:	1000fef8 	b	1bac <uw_update_context_1+0xb8>
    1fcc:	8fbc0010 	lw	gp,16(sp)

00001fd0 <uw_update_context>:
    1fd0:	3c1c0000 	lui	gp,0x0
    1fd4:	279c0000 	addiu	gp,gp,0
    1fd8:	0399e021 	addu	gp,gp,t9
    1fdc:	27bdffd8 	addiu	sp,sp,-40
    1fe0:	afbf0024 	sw	ra,36(sp)
    1fe4:	afb10020 	sw	s1,32(sp)
    1fe8:	afb0001c 	sw	s0,28(sp)
    1fec:	afbc0010 	sw	gp,16(sp)
    1ff0:	8f990000 	lw	t9,0(gp)
    1ff4:	00a08021 	move	s0,a1
    1ff8:	27391af4 	addiu	t9,t9,6900
    1ffc:	0320f809 	jalr	t9
    2000:	00808821 	move	s1,a0
    2004:	8e05060c 	lw	a1,1548(s0)
    2008:	28a200bd 	slti	v0,a1,189
    200c:	1040001a 	beqz	v0,2078 <uw_update_context+0xa8>
    2010:	8fbc0010 	lw	gp,16(sp)
    2014:	8f820000 	lw	v0,0(gp)
    2018:	8e24030c 	lw	a0,780(s1)
    201c:	00051880 	sll	v1,a1,0x2
    2020:	24420004 	addiu	v0,v0,4
    2024:	00a21021 	addu	v0,a1,v0
    2028:	02231821 	addu	v1,s1,v1
    202c:	7c840780 	ext	a0,a0,0x1e,0x1
    2030:	90460000 	lbu	a2,0(v0)
    2034:	1080000d 	beqz	a0,206c <uw_update_context+0x9c>
    2038:	8c670000 	lw	a3,0(v1)
    203c:	02251021 	addu	v0,s1,a1
    2040:	80430318 	lb	v1,792(v0)
    2044:	10600009 	beqz	v1,206c <uw_update_context+0x9c>
    2048:	00e02021 	move	a0,a3
    204c:	8fbf0024 	lw	ra,36(sp)
    2050:	2402fffe 	li	v0,-2
    2054:	00822024 	and	a0,a0,v0
    2058:	ae2402f8 	sw	a0,760(s1)
    205c:	8fb0001c 	lw	s0,28(sp)
    2060:	8fb10020 	lw	s1,32(sp)
    2064:	03e00008 	jr	ra
    2068:	27bd0028 	addiu	sp,sp,40
    206c:	24020004 	li	v0,4
    2070:	10c20004 	beq	a2,v0,2084 <uw_update_context+0xb4>
    2074:	8fbf0024 	lw	ra,36(sp)
    2078:	8f990000 	lw	t9,0(gp)
    207c:	0320f809 	jalr	t9
    2080:	00000000 	nop
    2084:	8ce40000 	lw	a0,0(a3)
    2088:	2402fffe 	li	v0,-2
    208c:	00822024 	and	a0,a0,v0
    2090:	ae2402f8 	sw	a0,760(s1)
    2094:	8fb0001c 	lw	s0,28(sp)
    2098:	8fb10020 	lw	s1,32(sp)
    209c:	03e00008 	jr	ra
    20a0:	27bd0028 	addiu	sp,sp,40

000020a4 <uw_frame_state_for>:
    20a4:	3c1c0000 	lui	gp,0x0
    20a8:	279c0000 	addiu	gp,gp,0
    20ac:	0399e021 	addu	gp,gp,t9
    20b0:	27bdff90 	addiu	sp,sp,-112
    20b4:	afbf006c 	sw	ra,108(sp)
    20b8:	afbe0068 	sw	s8,104(sp)
    20bc:	afb70064 	sw	s7,100(sp)
    20c0:	afb60060 	sw	s6,96(sp)
    20c4:	afb5005c 	sw	s5,92(sp)
    20c8:	afb40058 	sw	s4,88(sp)
    20cc:	afb30054 	sw	s3,84(sp)
    20d0:	afb20050 	sw	s2,80(sp)
    20d4:	afb1004c 	sw	s1,76(sp)
    20d8:	afb00048 	sw	s0,72(sp)
    20dc:	afbc0010 	sw	gp,16(sp)
    20e0:	8f990000 	lw	t9,0(gp)
    20e4:	00a08821 	move	s1,a1
    20e8:	0080b021 	move	s6,a0
    20ec:	00002821 	move	a1,zero
    20f0:	02202021 	move	a0,s1
    20f4:	0320f809 	jalr	t9
    20f8:	24060618 	li	a2,1560
    20fc:	8ec202f8 	lw	v0,760(s6)
    2100:	8fbc0010 	lw	gp,16(sp)
    2104:	aec00314 	sw	zero,788(s6)
    2108:	10400099 	beqz	v0,2370 <uw_frame_state_for+0x2cc>
    210c:	aec002fc 	sw	zero,764(s6)
    2110:	8ec4030c 	lw	a0,780(s6)
    2114:	8f990000 	lw	t9,0(gp)
    2118:	26c50300 	addiu	a1,s6,768
    211c:	000427c2 	srl	a0,a0,0x1f
    2120:	2484ffff 	addiu	a0,a0,-1
    2124:	0320f809 	jalr	t9
    2128:	00442021 	addu	a0,v0,a0
    212c:	8fbc0010 	lw	gp,16(sp)
    2130:	1040008a 	beqz	v0,235c <uw_frame_state_for+0x2b8>
    2134:	afa20020 	sw	v0,32(sp)
    2138:	8fa20020 	lw	v0,32(sp)
    213c:	8ec40308 	lw	a0,776(s6)
    2140:	8f990000 	lw	t9,0(gp)
    2144:	8c430004 	lw	v1,4(v0)
    2148:	24420004 	addiu	v0,v0,4
    214c:	ae2405fc 	sw	a0,1532(s1)
    2150:	00439823 	subu	s3,v0,v1
    2154:	26700009 	addiu	s0,s3,9
    2158:	0320f809 	jalr	t9
    215c:	02002021 	move	a0,s0
    2160:	92630009 	lbu	v1,9(s3)
    2164:	24420009 	addiu	v0,v0,9
    2168:	02622821 	addu	a1,s3,v0
    216c:	24020065 	li	v0,101
    2170:	8fbc0010 	lw	gp,16(sp)
    2174:	106200a4 	beq	v1,v0,2408 <uw_frame_state_for+0x364>
    2178:	24a40001 	addiu	a0,a1,1
    217c:	00002821 	move	a1,zero
    2180:	00003021 	move	a2,zero
    2184:	90830000 	lbu	v1,0(a0)
    2188:	24840001 	addiu	a0,a0,1
    218c:	3062007f 	andi	v0,v1,0x7f
    2190:	00a21004 	sllv	v0,v0,a1
    2194:	7c031c20 	seb	v1,v1
    2198:	00c23025 	or	a2,a2,v0
    219c:	0460fff9 	bltz	v1,2184 <uw_frame_state_for+0xe0>
    21a0:	24a50007 	addiu	a1,a1,7
    21a4:	8f990000 	lw	t9,0(gp)
    21a8:	ae260608 	sw	a2,1544(s1)
    21ac:	27390000 	addiu	t9,t9,0
    21b0:	0320f809 	jalr	t9
    21b4:	27a50018 	addiu	a1,sp,24
    21b8:	00402021 	move	a0,v0
    21bc:	8fa20018 	lw	v0,24(sp)
    21c0:	8fbc0010 	lw	gp,16(sp)
    21c4:	ae220604 	sw	v0,1540(s1)
    21c8:	92630008 	lbu	v1,8(s3)
    21cc:	24020001 	li	v0,1
    21d0:	10620074 	beq	v1,v0,23a4 <uw_frame_state_for+0x300>
    21d4:	00002821 	move	a1,zero
    21d8:	00003021 	move	a2,zero
    21dc:	90830000 	lbu	v1,0(a0)
    21e0:	24840001 	addiu	a0,a0,1
    21e4:	3062007f 	andi	v0,v1,0x7f
    21e8:	00a21004 	sllv	v0,v0,a1
    21ec:	7c031c20 	seb	v1,v1
    21f0:	00c23025 	or	a2,a2,v0
    21f4:	0460fff9 	bltz	v1,21dc <uw_frame_state_for+0x138>
    21f8:	24a50007 	addiu	a1,a1,7
    21fc:	2402ffff 	li	v0,-1
    2200:	a2220611 	sb	v0,1553(s1)
    2204:	ae26060c 	sw	a2,1548(s1)
    2208:	92030000 	lbu	v1,0(s0)
    220c:	2402007a 	li	v0,122
    2210:	1062006d 	beq	v1,v0,23c8 <uw_frame_state_for+0x324>
    2214:	0000f021 	move	s8,zero
    2218:	8f820000 	lw	v0,0(gp)
    221c:	26100001 	addiu	s0,s0,1
    2220:	2417004c 	li	s7,76
    2224:	244d03b0 	addiu	t5,v0,944
    2228:	24070052 	li	a3,82
    222c:	24150050 	li	s5,80
    2230:	24080053 	li	t0,83
    2234:	24090001 	li	t1,1
    2238:	240b00ff 	li	t3,255
    223c:	240e0010 	li	t6,16
    2240:	27af001c 	addiu	t7,sp,28
    2244:	1060000e 	beqz	v1,2280 <uw_frame_state_for+0x1dc>
    2248:	240c0020 	li	t4,32
    224c:	10770026 	beq	v1,s7,22e8 <uw_frame_state_for+0x244>
    2250:	00000000 	nop
    2254:	1067002a 	beq	v1,a3,2300 <uw_frame_state_for+0x25c>
    2258:	00000000 	nop
    225c:	1075002e 	beq	v1,s5,2318 <uw_frame_state_for+0x274>
    2260:	00000000 	nop
    2264:	146800de 	bne	v1,t0,25e0 <uw_frame_state_for+0x53c>
    2268:	00000000 	nop
    226c:	a2290613 	sb	t1,1555(s1)
    2270:	92030000 	lbu	v1,0(s0)
    2274:	26100001 	addiu	s0,s0,1
    2278:	1460fff4 	bnez	v1,224c <uw_frame_state_for+0x1a8>
    227c:	00000000 	nop
    2280:	13c000d8 	beqz	s8,25e4 <uw_frame_state_for+0x540>
    2284:	00000000 	nop
    2288:	03c02021 	move	a0,s8
    228c:	8f820000 	lw	v0,0(gp)
    2290:	8e650000 	lw	a1,0(s3)
    2294:	02c03021 	move	a2,s6
    2298:	245507dc 	addiu	s5,v0,2012
    229c:	24a50004 	addiu	a1,a1,4
    22a0:	02652821 	addu	a1,s3,a1
    22a4:	02a0c821 	move	t9,s5
    22a8:	0320f809 	jalr	t9
    22ac:	02203821 	move	a3,s1
    22b0:	92230610 	lbu	v1,1552(s1)
    22b4:	240200ff 	li	v0,255
    22b8:	106200df 	beq	v1,v0,2638 <uw_frame_state_for+0x594>
    22bc:	8fbc0010 	lw	gp,16(sp)
    22c0:	30630007 	andi	v1,v1,0x7
    22c4:	24020002 	li	v0,2
    22c8:	1062006a 	beq	v1,v0,2474 <uw_frame_state_for+0x3d0>
    22cc:	28620003 	slti	v0,v1,3
    22d0:	104000db 	beqz	v0,2640 <uw_frame_state_for+0x59c>
    22d4:	24020003 	li	v0,3
    22d8:	1460001e 	bnez	v1,2354 <uw_frame_state_for+0x2b0>
    22dc:	8f990000 	lw	t9,0(gp)
    22e0:	10000065 	b	2478 <uw_frame_state_for+0x3d4>
    22e4:	24020008 	li	v0,8
    22e8:	90820000 	lbu	v0,0(a0)
    22ec:	24840001 	addiu	a0,a0,1
    22f0:	a2220611 	sb	v0,1553(s1)
    22f4:	92030000 	lbu	v1,0(s0)
    22f8:	1000ffdf 	b	2278 <uw_frame_state_for+0x1d4>
    22fc:	26100001 	addiu	s0,s0,1
    2300:	90820000 	lbu	v0,0(a0)
    2304:	24840001 	addiu	a0,a0,1
    2308:	a2220610 	sb	v0,1552(s1)
    230c:	92030000 	lbu	v1,0(s0)
    2310:	1000ffd9 	b	2278 <uw_frame_state_for+0x1d4>
    2314:	26100001 	addiu	s0,s0,1
    2318:	90920000 	lbu	s2,0(a0)
    231c:	124b00ad 	beq	s2,t3,25d4 <uw_frame_state_for+0x530>
    2320:	24840001 	addiu	a0,a0,1
    2324:	32430070 	andi	v1,s2,0x70
    2328:	106c00ce 	beq	v1,t4,2664 <uw_frame_state_for+0x5c0>
    232c:	28620021 	slti	v0,v1,33
    2330:	1440003f 	bnez	v0,2430 <uw_frame_state_for+0x38c>
    2334:	24020040 	li	v0,64
    2338:	106200c8 	beq	v1,v0,265c <uw_frame_state_for+0x5b8>
    233c:	00000000 	nop
    2340:	1075003f 	beq	v1,s5,2440 <uw_frame_state_for+0x39c>
    2344:	24050030 	li	a1,48
    2348:	106500c8 	beq	v1,a1,266c <uw_frame_state_for+0x5c8>
    234c:	00000000 	nop
    2350:	8f990000 	lw	t9,0(gp)
    2354:	0320f809 	jalr	t9
    2358:	00000000 	nop
    235c:	8ec402f8 	lw	a0,760(s6)
    2360:	2402000c 	li	v0,12
    2364:	8c830004 	lw	v1,4(a0)
    2368:	106200d7 	beq	v1,v0,26c8 <uw_frame_state_for+0x624>
    236c:	00000000 	nop
    2370:	24020005 	li	v0,5
    2374:	8fbf006c 	lw	ra,108(sp)
    2378:	8fbe0068 	lw	s8,104(sp)
    237c:	8fb70064 	lw	s7,100(sp)
    2380:	8fb60060 	lw	s6,96(sp)
    2384:	8fb5005c 	lw	s5,92(sp)
    2388:	8fb40058 	lw	s4,88(sp)
    238c:	8fb30054 	lw	s3,84(sp)
    2390:	8fb20050 	lw	s2,80(sp)
    2394:	8fb1004c 	lw	s1,76(sp)
    2398:	8fb00048 	lw	s0,72(sp)
    239c:	03e00008 	jr	ra
    23a0:	27bd0070 	addiu	sp,sp,112
    23a4:	90820000 	lbu	v0,0(a0)
    23a8:	0000f021 	move	s8,zero
    23ac:	ae22060c 	sw	v0,1548(s1)
    23b0:	2402ffff 	li	v0,-1
    23b4:	a2220611 	sb	v0,1553(s1)
    23b8:	92030000 	lbu	v1,0(s0)
    23bc:	2402007a 	li	v0,122
    23c0:	1462ff95 	bne	v1,v0,2218 <uw_frame_state_for+0x174>
    23c4:	24840001 	addiu	a0,a0,1
    23c8:	00002821 	move	a1,zero
    23cc:	00003021 	move	a2,zero
    23d0:	90830000 	lbu	v1,0(a0)
    23d4:	24840001 	addiu	a0,a0,1
    23d8:	3062007f 	andi	v0,v1,0x7f
    23dc:	00a21004 	sllv	v0,v0,a1
    23e0:	7c031c20 	seb	v1,v1
    23e4:	00c23025 	or	a2,a2,v0
    23e8:	0460fff9 	bltz	v1,23d0 <uw_frame_state_for+0x32c>
    23ec:	24a50007 	addiu	a1,a1,7
    23f0:	24020001 	li	v0,1
    23f4:	a2220612 	sb	v0,1554(s1)
    23f8:	26100001 	addiu	s0,s0,1
    23fc:	92030000 	lbu	v1,0(s0)
    2400:	1000ff85 	b	2218 <uw_frame_state_for+0x174>
    2404:	0086f021 	addu	s8,a0,a2
    2408:	9263000a 	lbu	v1,10(s3)
    240c:	24020068 	li	v0,104
    2410:	1462ff5a 	bne	v1,v0,217c <uw_frame_state_for+0xd8>
    2414:	00000000 	nop
    2418:	88820003 	lwl	v0,3(a0)
    241c:	2670000b 	addiu	s0,s3,11
    2420:	98820000 	lwr	v0,0(a0)
    2424:	24a40005 	addiu	a0,a1,5
    2428:	1000ff54 	b	217c <uw_frame_state_for+0xd8>
    242c:	ae220614 	sw	v0,1556(s1)
    2430:	10600004 	beqz	v1,2444 <uw_frame_state_for+0x3a0>
    2434:	0000a021 	move	s4,zero
    2438:	146effc6 	bne	v1,t6,2354 <uw_frame_state_for+0x2b0>
    243c:	8f990000 	lw	t9,0(gp)
    2440:	0000a021 	move	s4,zero
    2444:	12550075 	beq	s2,s5,261c <uw_frame_state_for+0x578>
    2448:	00805021 	move	t2,a0
    244c:	3243000f 	andi	v1,s2,0xf
    2450:	2c62000d 	sltiu	v0,v1,13
    2454:	1040ffbf 	beqz	v0,2354 <uw_frame_state_for+0x2b0>
    2458:	8f990000 	lw	t9,0(gp)
    245c:	00031080 	sll	v0,v1,0x2
    2460:	01a21021 	addu	v0,t5,v0
    2464:	8c430000 	lw	v1,0(v0)
    2468:	007c1821 	addu	v1,v1,gp
    246c:	00600008 	jr	v1
    2470:	00000000 	nop
    2474:	24020004 	li	v0,4
    2478:	8fa40020 	lw	a0,32(sp)
    247c:	92230612 	lbu	v1,1554(s1)
    2480:	24420008 	addiu	v0,v0,8
    2484:	00823021 	addu	a2,a0,v0
    2488:	1060000c 	beqz	v1,24bc <uw_frame_state_for+0x418>
    248c:	00009821 	move	s3,zero
    2490:	00002821 	move	a1,zero
    2494:	00002021 	move	a0,zero
    2498:	90c30000 	lbu	v1,0(a2)
    249c:	24c60001 	addiu	a2,a2,1
    24a0:	3062007f 	andi	v0,v1,0x7f
    24a4:	00821004 	sllv	v0,v0,a0
    24a8:	7c031c20 	seb	v1,v1
    24ac:	00a22825 	or	a1,a1,v0
    24b0:	0460fff9 	bltz	v1,2498 <uw_frame_state_for+0x3f4>
    24b4:	24840007 	addiu	a0,a0,7
    24b8:	00c59821 	addu	s3,a2,a1
    24bc:	92300611 	lbu	s0,1553(s1)
    24c0:	240200ff 	li	v0,255
    24c4:	1202002c 	beq	s0,v0,2578 <uw_frame_state_for+0x4d4>
    24c8:	8fa20020 	lw	v0,32(sp)
    24cc:	32120070 	andi	s2,s0,0x70
    24d0:	24020020 	li	v0,32
    24d4:	12420107 	beq	s2,v0,28f4 <uw_frame_state_for+0x850>
    24d8:	2a420021 	slti	v0,s2,33
    24dc:	10400065 	beqz	v0,2674 <uw_frame_state_for+0x5d0>
    24e0:	24020040 	li	v0,64
    24e4:	1640009e 	bnez	s2,2760 <uw_frame_state_for+0x6bc>
    24e8:	24020010 	li	v0,16
    24ec:	10000068 	b	2690 <uw_frame_state_for+0x5ec>
    24f0:	0000a021 	move	s4,zero
    24f4:	88850003 	lwl	a1,3(a0)
    24f8:	98850000 	lwr	a1,0(a0)
    24fc:	24840004 	addiu	a0,a0,4
    2500:	10a00006 	beqz	a1,251c <uw_frame_state_for+0x478>
    2504:	32420070 	andi	v0,s2,0x70
    2508:	38420010 	xori	v0,v0,0x10
    250c:	0142a00a 	movz	s4,t2,v0
    2510:	7c121c20 	seb	v1,s2
    2514:	04600005 	bltz	v1,252c <uw_frame_state_for+0x488>
    2518:	00b42821 	addu	a1,a1,s4
    251c:	ae250600 	sw	a1,1536(s1)
    2520:	92030000 	lbu	v1,0(s0)
    2524:	1000ff54 	b	2278 <uw_frame_state_for+0x1d4>
    2528:	26100001 	addiu	s0,s0,1
    252c:	8ca50000 	lw	a1,0(a1)
    2530:	1000fffb 	b	2520 <uw_frame_state_for+0x47c>
    2534:	ae250600 	sw	a1,1536(s1)
    2538:	88850003 	lwl	a1,3(a0)
    253c:	98850000 	lwr	a1,0(a0)
    2540:	1000ffef 	b	2500 <uw_frame_state_for+0x45c>
    2544:	24840008 	addiu	a0,a0,8
    2548:	88c40003 	lwl	a0,3(a2)
    254c:	98c40000 	lwr	a0,0(a2)
    2550:	24c60008 	addiu	a2,a2,8
    2554:	10800006 	beqz	a0,2570 <uw_frame_state_for+0x4cc>
    2558:	3a420010 	xori	v0,s2,0x10
    255c:	02e2a00a 	movz	s4,s7,v0
    2560:	7c101c20 	seb	v1,s0
    2564:	04610002 	bgez	v1,2570 <uw_frame_state_for+0x4cc>
    2568:	00942021 	addu	a0,a0,s4
    256c:	8c840000 	lw	a0,0(a0)
    2570:	aec402fc 	sw	a0,764(s6)
    2574:	8fa20020 	lw	v0,32(sp)
    2578:	00c02021 	move	a0,a2
    257c:	0273200b 	movn	a0,s3,s3
    2580:	8c450000 	lw	a1,0(v0)
    2584:	02c03021 	move	a2,s6
    2588:	02203821 	move	a3,s1
    258c:	24a50004 	addiu	a1,a1,4
    2590:	02a0c821 	move	t9,s5
    2594:	0320f809 	jalr	t9
    2598:	00452821 	addu	a1,v0,a1
    259c:	8fbf006c 	lw	ra,108(sp)
    25a0:	8fbc0010 	lw	gp,16(sp)
    25a4:	00001021 	move	v0,zero
    25a8:	8fbe0068 	lw	s8,104(sp)
    25ac:	8fb70064 	lw	s7,100(sp)
    25b0:	8fb60060 	lw	s6,96(sp)
    25b4:	8fb5005c 	lw	s5,92(sp)
    25b8:	8fb40058 	lw	s4,88(sp)
    25bc:	8fb30054 	lw	s3,84(sp)
    25c0:	8fb20050 	lw	s2,80(sp)
    25c4:	8fb1004c 	lw	s1,76(sp)
    25c8:	8fb00048 	lw	s0,72(sp)
    25cc:	03e00008 	jr	ra
    25d0:	27bd0070 	addiu	sp,sp,112
    25d4:	00805021 	move	t2,a0
    25d8:	1000ff9c 	b	244c <uw_frame_state_for+0x3a8>
    25dc:	0000a021 	move	s4,zero
    25e0:	03c02021 	move	a0,s8
    25e4:	1480ff29 	bnez	a0,228c <uw_frame_state_for+0x1e8>
    25e8:	24020003 	li	v0,3
    25ec:	8fbf006c 	lw	ra,108(sp)
    25f0:	8fbe0068 	lw	s8,104(sp)
    25f4:	8fb70064 	lw	s7,100(sp)
    25f8:	8fb60060 	lw	s6,96(sp)
    25fc:	8fb5005c 	lw	s5,92(sp)
    2600:	8fb40058 	lw	s4,88(sp)
    2604:	8fb30054 	lw	s3,84(sp)
    2608:	8fb20050 	lw	s2,80(sp)
    260c:	8fb1004c 	lw	s1,76(sp)
    2610:	8fb00048 	lw	s0,72(sp)
    2614:	03e00008 	jr	ra
    2618:	27bd0070 	addiu	sp,sp,112
    261c:	24820003 	addiu	v0,a0,3
    2620:	2419fffc 	li	t9,-4
    2624:	00591024 	and	v0,v0,t9
    2628:	8c450000 	lw	a1,0(v0)
    262c:	24440004 	addiu	a0,v0,4
    2630:	1000ffbb 	b	2520 <uw_frame_state_for+0x47c>
    2634:	ae250600 	sw	a1,1536(s1)
    2638:	1000ff8f 	b	2478 <uw_frame_state_for+0x3d4>
    263c:	00001021 	move	v0,zero
    2640:	1062ff8d 	beq	v1,v0,2478 <uw_frame_state_for+0x3d4>
    2644:	24020008 	li	v0,8
    2648:	24020004 	li	v0,4
    264c:	1462ff41 	bne	v1,v0,2354 <uw_frame_state_for+0x2b0>
    2650:	8f990000 	lw	t9,0(gp)
    2654:	1000ff88 	b	2478 <uw_frame_state_for+0x3d4>
    2658:	24020010 	li	v0,16
    265c:	1000ff79 	b	2444 <uw_frame_state_for+0x3a0>
    2660:	8ed40308 	lw	s4,776(s6)
    2664:	1000ff77 	b	2444 <uw_frame_state_for+0x3a0>
    2668:	8ed40300 	lw	s4,768(s6)
    266c:	1000ff75 	b	2444 <uw_frame_state_for+0x3a0>
    2670:	8ed40304 	lw	s4,772(s6)
    2674:	12420071 	beq	s2,v0,283c <uw_frame_state_for+0x798>
    2678:	24020050 	li	v0,80
    267c:	1242ff9b 	beq	s2,v0,24ec <uw_frame_state_for+0x448>
    2680:	24020030 	li	v0,48
    2684:	1642ff33 	bne	s2,v0,2354 <uw_frame_state_for+0x2b0>
    2688:	8f990000 	lw	t9,0(gp)
    268c:	8ed40304 	lw	s4,772(s6)
    2690:	24020050 	li	v0,80
    2694:	12020090 	beq	s0,v0,28d8 <uw_frame_state_for+0x834>
    2698:	3203000f 	andi	v1,s0,0xf
    269c:	2c62000d 	sltiu	v0,v1,13
    26a0:	1040ff2b 	beqz	v0,2350 <uw_frame_state_for+0x2ac>
    26a4:	00c0b821 	move	s7,a2
    26a8:	00031080 	sll	v0,v1,0x2
    26ac:	8f830000 	lw	v1,0(gp)
    26b0:	246303e4 	addiu	v1,v1,996
    26b4:	00621821 	addu	v1,v1,v0
    26b8:	8c640000 	lw	a0,0(v1)
    26bc:	009c2021 	addu	a0,a0,gp
    26c0:	00800008 	jr	a0
    26c4:	00000000 	nop
    26c8:	8c830000 	lw	v1,0(a0)
    26cc:	3c042402 	lui	a0,0x2402
    26d0:	34821017 	ori	v0,a0,0x1017
    26d4:	10620089 	beq	v1,v0,28fc <uw_frame_state_for+0x858>
    26d8:	34821061 	ori	v0,a0,0x1061
    26dc:	1462ff25 	bne	v1,v0,2374 <uw_frame_state_for+0x2d0>
    26e0:	24020005 	li	v0,5
    26e4:	8ec402f4 	lw	a0,756(s6)
    26e8:	248700b0 	addiu	a3,a0,176
    26ec:	00e41023 	subu	v0,a3,a0
    26f0:	24030001 	li	v1,1
    26f4:	2404001d 	li	a0,29
    26f8:	ae2305f8 	sw	v1,1528(s1)
    26fc:	ae2405f0 	sw	a0,1520(s1)
    2700:	ae2205ec 	sw	v0,1516(s1)
    2704:	26240004 	addiu	a0,s1,4
    2708:	00001821 	move	v1,zero
    270c:	24060001 	li	a2,1
    2710:	24050020 	li	a1,32
    2714:	24620002 	addiu	v0,v1,2
    2718:	000210c0 	sll	v0,v0,0x3
    271c:	00e21021 	addu	v0,a3,v0
    2720:	00471023 	subu	v0,v0,a3
    2724:	24630001 	addiu	v1,v1,1
    2728:	ac82fffc 	sw	v0,-4(a0)
    272c:	ac860000 	sw	a2,0(a0)
    2730:	1465fff8 	bne	v1,a1,2714 <uw_frame_state_for+0x670>
    2734:	24840008 	addiu	a0,a0,8
    2738:	8ce20008 	lw	v0,8(a3)
    273c:	24030042 	li	v1,66
    2740:	24040004 	li	a0,4
    2744:	24420004 	addiu	v0,v0,4
    2748:	00471023 	subu	v0,v0,a3
    274c:	ae220210 	sw	v0,528(s1)
    2750:	ae23060c 	sw	v1,1548(s1)
    2754:	ae240214 	sw	a0,532(s1)
    2758:	1000ff06 	b	2374 <uw_frame_state_for+0x2d0>
    275c:	00001021 	move	v0,zero
    2760:	1642fefc 	bne	s2,v0,2354 <uw_frame_state_for+0x2b0>
    2764:	8f990000 	lw	t9,0(gp)
    2768:	1000ffc9 	b	2690 <uw_frame_state_for+0x5ec>
    276c:	0000a021 	move	s4,zero
    2770:	8f990000 	lw	t9,0(gp)
    2774:	01e02821 	move	a1,t7
    2778:	afa70024 	sw	a3,36(sp)
    277c:	afa80028 	sw	t0,40(sp)
    2780:	afa9002c 	sw	t1,44(sp)
    2784:	afaa0030 	sw	t2,48(sp)
    2788:	afab0034 	sw	t3,52(sp)
    278c:	afac0038 	sw	t4,56(sp)
    2790:	afad003c 	sw	t5,60(sp)
    2794:	afae0040 	sw	t6,64(sp)
    2798:	27390000 	addiu	t9,t9,0
    279c:	0320f809 	jalr	t9
    27a0:	afaf0044 	sw	t7,68(sp)
    27a4:	8fbc0010 	lw	gp,16(sp)
    27a8:	00402021 	move	a0,v0
    27ac:	8fa5001c 	lw	a1,28(sp)
    27b0:	8fa70024 	lw	a3,36(sp)
    27b4:	8fa80028 	lw	t0,40(sp)
    27b8:	8fa9002c 	lw	t1,44(sp)
    27bc:	8faa0030 	lw	t2,48(sp)
    27c0:	8fab0034 	lw	t3,52(sp)
    27c4:	8fac0038 	lw	t4,56(sp)
    27c8:	8fad003c 	lw	t5,60(sp)
    27cc:	8fae0040 	lw	t6,64(sp)
    27d0:	1000ff4b 	b	2500 <uw_frame_state_for+0x45c>
    27d4:	8faf0044 	lw	t7,68(sp)
    27d8:	90820001 	lbu	v0,1(a0)
    27dc:	90830000 	lbu	v1,0(a0)
    27e0:	24840002 	addiu	a0,a0,2
    27e4:	00021200 	sll	v0,v0,0x8
    27e8:	1000ff45 	b	2500 <uw_frame_state_for+0x45c>
    27ec:	00432825 	or	a1,v0,v1
    27f0:	00002821 	move	a1,zero
    27f4:	00003021 	move	a2,zero
    27f8:	90830000 	lbu	v1,0(a0)
    27fc:	24840001 	addiu	a0,a0,1
    2800:	3062007f 	andi	v0,v1,0x7f
    2804:	00c21004 	sllv	v0,v0,a2
    2808:	7c031c20 	seb	v1,v1
    280c:	00a22825 	or	a1,a1,v0
    2810:	0460fff9 	bltz	v1,27f8 <uw_frame_state_for+0x754>
    2814:	24c60007 	addiu	a2,a2,7
    2818:	1000ff39 	b	2500 <uw_frame_state_for+0x45c>
    281c:	00000000 	nop
    2820:	90820001 	lbu	v0,1(a0)
    2824:	90830000 	lbu	v1,0(a0)
    2828:	24840002 	addiu	a0,a0,2
    282c:	00021200 	sll	v0,v0,0x8
    2830:	00431025 	or	v0,v0,v1
    2834:	1000ff32 	b	2500 <uw_frame_state_for+0x45c>
    2838:	7c022e20 	seh	a1,v0
    283c:	1000ff94 	b	2690 <uw_frame_state_for+0x5ec>
    2840:	8ed40308 	lw	s4,776(s6)
    2844:	88c40003 	lwl	a0,3(a2)
    2848:	98c40000 	lwr	a0,0(a2)
    284c:	1000ff41 	b	2554 <uw_frame_state_for+0x4b0>
    2850:	24c60004 	addiu	a2,a2,4
    2854:	90c20001 	lbu	v0,1(a2)
    2858:	90c30000 	lbu	v1,0(a2)
    285c:	24c60002 	addiu	a2,a2,2
    2860:	00021200 	sll	v0,v0,0x8
    2864:	1000ff3b 	b	2554 <uw_frame_state_for+0x4b0>
    2868:	00432025 	or	a0,v0,v1
    286c:	00002021 	move	a0,zero
    2870:	00002821 	move	a1,zero
    2874:	90c30000 	lbu	v1,0(a2)
    2878:	24c60001 	addiu	a2,a2,1
    287c:	3062007f 	andi	v0,v1,0x7f
    2880:	00a21004 	sllv	v0,v0,a1
    2884:	7c031c20 	seb	v1,v1
    2888:	00822025 	or	a0,a0,v0
    288c:	0460fff9 	bltz	v1,2874 <uw_frame_state_for+0x7d0>
    2890:	24a50007 	addiu	a1,a1,7
    2894:	1000ff2f 	b	2554 <uw_frame_state_for+0x4b0>
    2898:	00000000 	nop
    289c:	8f990000 	lw	t9,0(gp)
    28a0:	00c02021 	move	a0,a2
    28a4:	27390000 	addiu	t9,t9,0
    28a8:	0320f809 	jalr	t9
    28ac:	27a5001c 	addiu	a1,sp,28
    28b0:	00403021 	move	a2,v0
    28b4:	1000ff27 	b	2554 <uw_frame_state_for+0x4b0>
    28b8:	8fa4001c 	lw	a0,28(sp)
    28bc:	90c20001 	lbu	v0,1(a2)
    28c0:	90c30000 	lbu	v1,0(a2)
    28c4:	24c60002 	addiu	a2,a2,2
    28c8:	00021200 	sll	v0,v0,0x8
    28cc:	00431025 	or	v0,v0,v1
    28d0:	1000ff20 	b	2554 <uw_frame_state_for+0x4b0>
    28d4:	7c022620 	seh	a0,v0
    28d8:	24c20003 	addiu	v0,a2,3
    28dc:	2403fffc 	li	v1,-4
    28e0:	00431024 	and	v0,v0,v1
    28e4:	8c440000 	lw	a0,0(v0)
    28e8:	24460004 	addiu	a2,v0,4
    28ec:	1000ff21 	b	2574 <uw_frame_state_for+0x4d0>
    28f0:	aec402fc 	sw	a0,764(s6)
    28f4:	1000ff66 	b	2690 <uw_frame_state_for+0x5ec>
    28f8:	8ed40300 	lw	s4,768(s6)
    28fc:	8ec402f4 	lw	a0,756(s6)
    2900:	1000ff7a 	b	26ec <uw_frame_state_for+0x648>
    2904:	24870018 	addiu	a3,a0,24

00002908 <uw_init_context_1>:
    2908:	3c1c0000 	lui	gp,0x0
    290c:	279c0000 	addiu	gp,gp,0
    2910:	0399e021 	addu	gp,gp,t9
    2914:	27bdf9b0 	addiu	sp,sp,-1616
    2918:	afbf064c 	sw	ra,1612(sp)
    291c:	afb40648 	sw	s4,1608(sp)
    2920:	afb30644 	sw	s3,1604(sp)
    2924:	afb20640 	sw	s2,1600(sp)
    2928:	afb1063c 	sw	s1,1596(sp)
    292c:	afb00638 	sw	s0,1592(sp)
    2930:	afbc0010 	sw	gp,16(sp)
    2934:	8f990000 	lw	t9,0(gp)
    2938:	2402fffe 	li	v0,-2
    293c:	00a0a021 	move	s4,a1
    2940:	00c09021 	move	s2,a2
    2944:	00002821 	move	a1,zero
    2948:	240603d8 	li	a2,984
    294c:	03e28024 	and	s0,ra,v0
    2950:	0320f809 	jalr	t9
    2954:	00808821 	move	s1,a0
    2958:	8fbc0010 	lw	gp,16(sp)
    295c:	3c024000 	lui	v0,0x4000
    2960:	27b3001c 	addiu	s3,sp,28
    2964:	8f990000 	lw	t9,0(gp)
    2968:	ae3002f8 	sw	s0,760(s1)
    296c:	ae22030c 	sw	v0,780(s1)
    2970:	02202021 	move	a0,s1
    2974:	273920a4 	addiu	t9,t9,8356
    2978:	0320f809 	jalr	t9
    297c:	02602821 	move	a1,s3
    2980:	14400014 	bnez	v0,29d4 <uw_init_context_1+0xcc>
    2984:	8fbc0010 	lw	gp,16(sp)
    2988:	8f820000 	lw	v0,0(gp)
    298c:	10400008 	beqz	v0,29b0 <uw_init_context_1+0xa8>
    2990:	8f840000 	lw	a0,0(gp)
    2994:	8f850000 	lw	a1,0(gp)
    2998:	8f990000 	lw	t9,0(gp)
    299c:	24840000 	addiu	a0,a0,0
    29a0:	0320f809 	jalr	t9
    29a4:	24a50238 	addiu	a1,a1,568
    29a8:	1040000d 	beqz	v0,29e0 <uw_init_context_1+0xd8>
    29ac:	8fbc0010 	lw	gp,16(sp)
    29b0:	8f850000 	lw	a1,0(gp)
    29b4:	90a20004 	lbu	v0,4(a1)
    29b8:	1040002c 	beqz	v0,2a6c <uw_init_context_1+0x164>
    29bc:	8f830000 	lw	v1,0(gp)
    29c0:	24a20004 	addiu	v0,a1,4
    29c4:	9044001d 	lbu	a0,29(v0)
    29c8:	24030004 	li	v1,4
    29cc:	1083000a 	beq	a0,v1,29f8 <uw_init_context_1+0xf0>
    29d0:	00000000 	nop
    29d4:	8f990000 	lw	t9,0(gp)
    29d8:	0320f809 	jalr	t9
    29dc:	00000000 	nop
    29e0:	8f850000 	lw	a1,0(gp)
    29e4:	24030004 	li	v1,4
    29e8:	24a20004 	addiu	v0,a1,4
    29ec:	9044001d 	lbu	a0,29(v0)
    29f0:	1483fff9 	bne	a0,v1,29d8 <uw_init_context_1+0xd0>
    29f4:	8f990000 	lw	t9,0(gp)
    29f8:	8e22030c 	lw	v0,780(s1)
    29fc:	7c420780 	ext	v0,v0,0x1e,0x1
    2a00:	10400002 	beqz	v0,2a0c <uw_init_context_1+0x104>
    2a04:	afb40018 	sw	s4,24(sp)
    2a08:	a2200335 	sb	zero,821(s1)
    2a0c:	8f990000 	lw	t9,0(gp)
    2a10:	27a20018 	addiu	v0,sp,24
    2a14:	ae220074 	sw	v0,116(s1)
    2a18:	2403001d 	li	v1,29
    2a1c:	24020001 	li	v0,1
    2a20:	afa20614 	sw	v0,1556(sp)
    2a24:	02602821 	move	a1,s3
    2a28:	02202021 	move	a0,s1
    2a2c:	afa3060c 	sw	v1,1548(sp)
    2a30:	27391af4 	addiu	t9,t9,6900
    2a34:	0320f809 	jalr	t9
    2a38:	afa00608 	sw	zero,1544(sp)
    2a3c:	8fbf064c 	lw	ra,1612(sp)
    2a40:	2402fffe 	li	v0,-2
    2a44:	02429024 	and	s2,s2,v0
    2a48:	ae3202f8 	sw	s2,760(s1)
    2a4c:	8fbc0010 	lw	gp,16(sp)
    2a50:	8fb40648 	lw	s4,1608(sp)
    2a54:	8fb30644 	lw	s3,1604(sp)
    2a58:	8fb20640 	lw	s2,1600(sp)
    2a5c:	8fb1063c 	lw	s1,1596(sp)
    2a60:	8fb00638 	lw	s0,1592(sp)
    2a64:	03e00008 	jr	ra
    2a68:	27bd0650 	addiu	sp,sp,1616
    2a6c:	8f840000 	lw	a0,0(gp)
    2a70:	24020004 	li	v0,4
    2a74:	a0620005 	sb	v0,5(v1)
    2a78:	a0820006 	sb	v0,6(a0)
    2a7c:	8f830000 	lw	v1,0(gp)
    2a80:	8f840000 	lw	a0,0(gp)
    2a84:	a0a20004 	sb	v0,4(a1)
    2a88:	a0620007 	sb	v0,7(v1)
    2a8c:	a0820008 	sb	v0,8(a0)
    2a90:	8f830000 	lw	v1,0(gp)
    2a94:	8f840000 	lw	a0,0(gp)
    2a98:	a0620009 	sb	v0,9(v1)
    2a9c:	a082000a 	sb	v0,10(a0)
    2aa0:	8f830000 	lw	v1,0(gp)
    2aa4:	8f840000 	lw	a0,0(gp)
    2aa8:	a062000b 	sb	v0,11(v1)
    2aac:	a082000c 	sb	v0,12(a0)
    2ab0:	8f830000 	lw	v1,0(gp)
    2ab4:	8f840000 	lw	a0,0(gp)
    2ab8:	a062000d 	sb	v0,13(v1)
    2abc:	a082000e 	sb	v0,14(a0)
    2ac0:	8f830000 	lw	v1,0(gp)
    2ac4:	8f840000 	lw	a0,0(gp)
    2ac8:	a062000f 	sb	v0,15(v1)
    2acc:	a0820010 	sb	v0,16(a0)
    2ad0:	8f830000 	lw	v1,0(gp)
    2ad4:	8f840000 	lw	a0,0(gp)
    2ad8:	a0620011 	sb	v0,17(v1)
    2adc:	a0820012 	sb	v0,18(a0)
    2ae0:	8f830000 	lw	v1,0(gp)
    2ae4:	8f840000 	lw	a0,0(gp)
    2ae8:	a0620013 	sb	v0,19(v1)
    2aec:	a0820014 	sb	v0,20(a0)
    2af0:	8f830000 	lw	v1,0(gp)
    2af4:	8f840000 	lw	a0,0(gp)
    2af8:	a0620015 	sb	v0,21(v1)
    2afc:	a0820016 	sb	v0,22(a0)
    2b00:	8f830000 	lw	v1,0(gp)
    2b04:	8f840000 	lw	a0,0(gp)
    2b08:	a0620017 	sb	v0,23(v1)
    2b0c:	a0820018 	sb	v0,24(a0)
    2b10:	8f830000 	lw	v1,0(gp)
    2b14:	8f840000 	lw	a0,0(gp)
    2b18:	a0620019 	sb	v0,25(v1)
    2b1c:	a082001a 	sb	v0,26(a0)
    2b20:	8f830000 	lw	v1,0(gp)
    2b24:	8f840000 	lw	a0,0(gp)
    2b28:	a062001b 	sb	v0,27(v1)
    2b2c:	a082001c 	sb	v0,28(a0)
    2b30:	8f830000 	lw	v1,0(gp)
    2b34:	8f840000 	lw	a0,0(gp)
    2b38:	a062001d 	sb	v0,29(v1)
    2b3c:	a082001e 	sb	v0,30(a0)
    2b40:	8f830000 	lw	v1,0(gp)
    2b44:	8f840000 	lw	a0,0(gp)
    2b48:	a062001f 	sb	v0,31(v1)
    2b4c:	a0820020 	sb	v0,32(a0)
    2b50:	8f830000 	lw	v1,0(gp)
    2b54:	8f840000 	lw	a0,0(gp)
    2b58:	a0620021 	sb	v0,33(v1)
    2b5c:	a0820022 	sb	v0,34(a0)
    2b60:	8f830000 	lw	v1,0(gp)
    2b64:	8f840000 	lw	a0,0(gp)
    2b68:	a0620023 	sb	v0,35(v1)
    2b6c:	a0820024 	sb	v0,36(a0)
    2b70:	8f830000 	lw	v1,0(gp)
    2b74:	8f840000 	lw	a0,0(gp)
    2b78:	a0620025 	sb	v0,37(v1)
    2b7c:	a0820026 	sb	v0,38(a0)
    2b80:	8f830000 	lw	v1,0(gp)
    2b84:	8f840000 	lw	a0,0(gp)
    2b88:	a0620027 	sb	v0,39(v1)
    2b8c:	a0820028 	sb	v0,40(a0)
    2b90:	8f830000 	lw	v1,0(gp)
    2b94:	8f840000 	lw	a0,0(gp)
    2b98:	a0620029 	sb	v0,41(v1)
    2b9c:	a082002a 	sb	v0,42(a0)
    2ba0:	8f830000 	lw	v1,0(gp)
    2ba4:	8f840000 	lw	a0,0(gp)
    2ba8:	a062002b 	sb	v0,43(v1)
    2bac:	a082002c 	sb	v0,44(a0)
    2bb0:	8f830000 	lw	v1,0(gp)
    2bb4:	8f840000 	lw	a0,0(gp)
    2bb8:	a062002d 	sb	v0,45(v1)
    2bbc:	a082002e 	sb	v0,46(a0)
    2bc0:	8f830000 	lw	v1,0(gp)
    2bc4:	8f840000 	lw	a0,0(gp)
    2bc8:	a062002f 	sb	v0,47(v1)
    2bcc:	a0820030 	sb	v0,48(a0)
    2bd0:	8f830000 	lw	v1,0(gp)
    2bd4:	8f840000 	lw	a0,0(gp)
    2bd8:	a0620031 	sb	v0,49(v1)
    2bdc:	a0820032 	sb	v0,50(a0)
    2be0:	8f830000 	lw	v1,0(gp)
    2be4:	8f840000 	lw	a0,0(gp)
    2be8:	a0620033 	sb	v0,51(v1)
    2bec:	a0820034 	sb	v0,52(a0)
    2bf0:	8f830000 	lw	v1,0(gp)
    2bf4:	8f840000 	lw	a0,0(gp)
    2bf8:	a0620035 	sb	v0,53(v1)
    2bfc:	a0820036 	sb	v0,54(a0)
    2c00:	8f830000 	lw	v1,0(gp)
    2c04:	8f840000 	lw	a0,0(gp)
    2c08:	a0620037 	sb	v0,55(v1)
    2c0c:	a0820038 	sb	v0,56(a0)
    2c10:	8f830000 	lw	v1,0(gp)
    2c14:	8f840000 	lw	a0,0(gp)
    2c18:	a0620039 	sb	v0,57(v1)
    2c1c:	a082003a 	sb	v0,58(a0)
    2c20:	8f830000 	lw	v1,0(gp)
    2c24:	8f840000 	lw	a0,0(gp)
    2c28:	a062003b 	sb	v0,59(v1)
    2c2c:	a082003c 	sb	v0,60(a0)
    2c30:	8f830000 	lw	v1,0(gp)
    2c34:	8f840000 	lw	a0,0(gp)
    2c38:	a062003d 	sb	v0,61(v1)
    2c3c:	a082003e 	sb	v0,62(a0)
    2c40:	8f830000 	lw	v1,0(gp)
    2c44:	8f840000 	lw	a0,0(gp)
    2c48:	a062003f 	sb	v0,63(v1)
    2c4c:	a0820040 	sb	v0,64(a0)
    2c50:	8f830000 	lw	v1,0(gp)
    2c54:	8f840000 	lw	a0,0(gp)
    2c58:	a0620041 	sb	v0,65(v1)
    2c5c:	a0820042 	sb	v0,66(a0)
    2c60:	8f830000 	lw	v1,0(gp)
    2c64:	8f840000 	lw	a0,0(gp)
    2c68:	a0620043 	sb	v0,67(v1)
    2c6c:	a0820045 	sb	v0,69(a0)
    2c70:	8f830000 	lw	v1,0(gp)
    2c74:	8f840000 	lw	a0,0(gp)
    2c78:	a0620044 	sb	v0,68(v1)
    2c7c:	a0820054 	sb	v0,84(a0)
    2c80:	8f830000 	lw	v1,0(gp)
    2c84:	8f840000 	lw	a0,0(gp)
    2c88:	a0620055 	sb	v0,85(v1)
    2c8c:	a0820056 	sb	v0,86(a0)
    2c90:	8f830000 	lw	v1,0(gp)
    2c94:	8f840000 	lw	a0,0(gp)
    2c98:	a0620057 	sb	v0,87(v1)
    2c9c:	a0820058 	sb	v0,88(a0)
    2ca0:	8f830000 	lw	v1,0(gp)
    2ca4:	8f840000 	lw	a0,0(gp)
    2ca8:	a0620059 	sb	v0,89(v1)
    2cac:	a082005a 	sb	v0,90(a0)
    2cb0:	8f830000 	lw	v1,0(gp)
    2cb4:	8f840000 	lw	a0,0(gp)
    2cb8:	a062005b 	sb	v0,91(v1)
    2cbc:	a082005c 	sb	v0,92(a0)
    2cc0:	8f830000 	lw	v1,0(gp)
    2cc4:	8f840000 	lw	a0,0(gp)
    2cc8:	a062005d 	sb	v0,93(v1)
    2ccc:	a082005e 	sb	v0,94(a0)
    2cd0:	8f830000 	lw	v1,0(gp)
    2cd4:	8f840000 	lw	a0,0(gp)
    2cd8:	a062005f 	sb	v0,95(v1)
    2cdc:	a0820060 	sb	v0,96(a0)
    2ce0:	8f830000 	lw	v1,0(gp)
    2ce4:	8f840000 	lw	a0,0(gp)
    2ce8:	a0620061 	sb	v0,97(v1)
    2cec:	a0820062 	sb	v0,98(a0)
    2cf0:	8f830000 	lw	v1,0(gp)
    2cf4:	8f840000 	lw	a0,0(gp)
    2cf8:	a0620063 	sb	v0,99(v1)
    2cfc:	a0820064 	sb	v0,100(a0)
    2d00:	8f830000 	lw	v1,0(gp)
    2d04:	8f840000 	lw	a0,0(gp)
    2d08:	a0620065 	sb	v0,101(v1)
    2d0c:	a0820066 	sb	v0,102(a0)
    2d10:	8f830000 	lw	v1,0(gp)
    2d14:	8f840000 	lw	a0,0(gp)
    2d18:	a0620067 	sb	v0,103(v1)
    2d1c:	a0820068 	sb	v0,104(a0)
    2d20:	8f830000 	lw	v1,0(gp)
    2d24:	8f840000 	lw	a0,0(gp)
    2d28:	a0620069 	sb	v0,105(v1)
    2d2c:	a082006a 	sb	v0,106(a0)
    2d30:	8f830000 	lw	v1,0(gp)
    2d34:	8f840000 	lw	a0,0(gp)
    2d38:	a062006b 	sb	v0,107(v1)
    2d3c:	a082006c 	sb	v0,108(a0)
    2d40:	8f830000 	lw	v1,0(gp)
    2d44:	8f840000 	lw	a0,0(gp)
    2d48:	a062006d 	sb	v0,109(v1)
    2d4c:	a082006e 	sb	v0,110(a0)
    2d50:	8f830000 	lw	v1,0(gp)
    2d54:	8f840000 	lw	a0,0(gp)
    2d58:	a062006f 	sb	v0,111(v1)
    2d5c:	a0820070 	sb	v0,112(a0)
    2d60:	8f830000 	lw	v1,0(gp)
    2d64:	8f840000 	lw	a0,0(gp)
    2d68:	a0620071 	sb	v0,113(v1)
    2d6c:	a0820072 	sb	v0,114(a0)
    2d70:	8f830000 	lw	v1,0(gp)
    2d74:	8f840000 	lw	a0,0(gp)
    2d78:	a0620073 	sb	v0,115(v1)
    2d7c:	a0820074 	sb	v0,116(a0)
    2d80:	8f830000 	lw	v1,0(gp)
    2d84:	8f840000 	lw	a0,0(gp)
    2d88:	a0620075 	sb	v0,117(v1)
    2d8c:	a0820076 	sb	v0,118(a0)
    2d90:	8f830000 	lw	v1,0(gp)
    2d94:	8f840000 	lw	a0,0(gp)
    2d98:	a0620077 	sb	v0,119(v1)
    2d9c:	a0820078 	sb	v0,120(a0)
    2da0:	8f830000 	lw	v1,0(gp)
    2da4:	8f840000 	lw	a0,0(gp)
    2da8:	a0620079 	sb	v0,121(v1)
    2dac:	a082007a 	sb	v0,122(a0)
    2db0:	8f830000 	lw	v1,0(gp)
    2db4:	8f840000 	lw	a0,0(gp)
    2db8:	a062007b 	sb	v0,123(v1)
    2dbc:	a082007c 	sb	v0,124(a0)
    2dc0:	8f830000 	lw	v1,0(gp)
    2dc4:	8f840000 	lw	a0,0(gp)
    2dc8:	a062007d 	sb	v0,125(v1)
    2dcc:	a082007e 	sb	v0,126(a0)
    2dd0:	8f830000 	lw	v1,0(gp)
    2dd4:	8f840000 	lw	a0,0(gp)
    2dd8:	a062007f 	sb	v0,127(v1)
    2ddc:	a0820080 	sb	v0,128(a0)
    2de0:	8f830000 	lw	v1,0(gp)
    2de4:	8f840000 	lw	a0,0(gp)
    2de8:	a0620081 	sb	v0,129(v1)
    2dec:	a0820082 	sb	v0,130(a0)
    2df0:	8f830000 	lw	v1,0(gp)
    2df4:	8f840000 	lw	a0,0(gp)
    2df8:	a0620083 	sb	v0,131(v1)
    2dfc:	a0820084 	sb	v0,132(a0)
    2e00:	8f830000 	lw	v1,0(gp)
    2e04:	8f840000 	lw	a0,0(gp)
    2e08:	a0620085 	sb	v0,133(v1)
    2e0c:	a0820086 	sb	v0,134(a0)
    2e10:	8f830000 	lw	v1,0(gp)
    2e14:	8f840000 	lw	a0,0(gp)
    2e18:	a0620087 	sb	v0,135(v1)
    2e1c:	a0820088 	sb	v0,136(a0)
    2e20:	8f830000 	lw	v1,0(gp)
    2e24:	8f840000 	lw	a0,0(gp)
    2e28:	a0620089 	sb	v0,137(v1)
    2e2c:	a082008a 	sb	v0,138(a0)
    2e30:	8f830000 	lw	v1,0(gp)
    2e34:	8f840000 	lw	a0,0(gp)
    2e38:	a062008b 	sb	v0,139(v1)
    2e3c:	a082008c 	sb	v0,140(a0)
    2e40:	8f830000 	lw	v1,0(gp)
    2e44:	8f840000 	lw	a0,0(gp)
    2e48:	a062008d 	sb	v0,141(v1)
    2e4c:	a082008e 	sb	v0,142(a0)
    2e50:	8f830000 	lw	v1,0(gp)
    2e54:	8f840000 	lw	a0,0(gp)
    2e58:	a062008f 	sb	v0,143(v1)
    2e5c:	a0820090 	sb	v0,144(a0)
    2e60:	8f830000 	lw	v1,0(gp)
    2e64:	8f840000 	lw	a0,0(gp)
    2e68:	a0620091 	sb	v0,145(v1)
    2e6c:	a0820092 	sb	v0,146(a0)
    2e70:	8f830000 	lw	v1,0(gp)
    2e74:	8f840000 	lw	a0,0(gp)
    2e78:	a0620093 	sb	v0,147(v1)
    2e7c:	a0820094 	sb	v0,148(a0)
    2e80:	8f830000 	lw	v1,0(gp)
    2e84:	8f840000 	lw	a0,0(gp)
    2e88:	a0620095 	sb	v0,149(v1)
    2e8c:	a0820096 	sb	v0,150(a0)
    2e90:	8f830000 	lw	v1,0(gp)
    2e94:	8f840000 	lw	a0,0(gp)
    2e98:	a0620097 	sb	v0,151(v1)
    2e9c:	a0820098 	sb	v0,152(a0)
    2ea0:	8f830000 	lw	v1,0(gp)
    2ea4:	8f840000 	lw	a0,0(gp)
    2ea8:	a0620099 	sb	v0,153(v1)
    2eac:	8f830000 	lw	v1,0(gp)
    2eb0:	a0820046 	sb	v0,70(a0)
    2eb4:	8f840000 	lw	a0,0(gp)
    2eb8:	a062009a 	sb	v0,154(v1)
    2ebc:	8f830000 	lw	v1,0(gp)
    2ec0:	a082009b 	sb	v0,155(a0)
    2ec4:	8f840000 	lw	a0,0(gp)
    2ec8:	a062009c 	sb	v0,156(v1)
    2ecc:	8f830000 	lw	v1,0(gp)
    2ed0:	a082009d 	sb	v0,157(a0)
    2ed4:	8f840000 	lw	a0,0(gp)
    2ed8:	a062009e 	sb	v0,158(v1)
    2edc:	8f830000 	lw	v1,0(gp)
    2ee0:	a082009f 	sb	v0,159(a0)
    2ee4:	8f840000 	lw	a0,0(gp)
    2ee8:	a06200a0 	sb	v0,160(v1)
    2eec:	8f830000 	lw	v1,0(gp)
    2ef0:	a08200a1 	sb	v0,161(a0)
    2ef4:	8f840000 	lw	a0,0(gp)
    2ef8:	a06200a2 	sb	v0,162(v1)
    2efc:	8f830000 	lw	v1,0(gp)
    2f00:	a08200a3 	sb	v0,163(a0)
    2f04:	8f840000 	lw	a0,0(gp)
    2f08:	a06200a4 	sb	v0,164(v1)
    2f0c:	8f830000 	lw	v1,0(gp)
    2f10:	a08200a5 	sb	v0,165(a0)
    2f14:	8f840000 	lw	a0,0(gp)
    2f18:	a06200a6 	sb	v0,166(v1)
    2f1c:	8f830000 	lw	v1,0(gp)
    2f20:	a08200a7 	sb	v0,167(a0)
    2f24:	8f840000 	lw	a0,0(gp)
    2f28:	a06200a8 	sb	v0,168(v1)
    2f2c:	8f830000 	lw	v1,0(gp)
    2f30:	a08200a9 	sb	v0,169(a0)
    2f34:	8f840000 	lw	a0,0(gp)
    2f38:	a06200aa 	sb	v0,170(v1)
    2f3c:	8f830000 	lw	v1,0(gp)
    2f40:	a08200ab 	sb	v0,171(a0)
    2f44:	8f840000 	lw	a0,0(gp)
    2f48:	a06200ac 	sb	v0,172(v1)
    2f4c:	8f830000 	lw	v1,0(gp)
    2f50:	a08200ad 	sb	v0,173(a0)
    2f54:	8f840000 	lw	a0,0(gp)
    2f58:	a06200ae 	sb	v0,174(v1)
    2f5c:	8f830000 	lw	v1,0(gp)
    2f60:	a08200af 	sb	v0,175(a0)
    2f64:	8f840000 	lw	a0,0(gp)
    2f68:	a06200b0 	sb	v0,176(v1)
    2f6c:	8f830000 	lw	v1,0(gp)
    2f70:	a08200b1 	sb	v0,177(a0)
    2f74:	8f840000 	lw	a0,0(gp)
    2f78:	a06200b2 	sb	v0,178(v1)
    2f7c:	8f830000 	lw	v1,0(gp)
    2f80:	a08200b3 	sb	v0,179(a0)
    2f84:	8f840000 	lw	a0,0(gp)
    2f88:	a06200b5 	sb	v0,181(v1)
    2f8c:	8f830000 	lw	v1,0(gp)
    2f90:	a08200b4 	sb	v0,180(a0)
    2f94:	8f840000 	lw	a0,0(gp)
    2f98:	a06200b7 	sb	v0,183(v1)
    2f9c:	8f830000 	lw	v1,0(gp)
    2fa0:	a08200b6 	sb	v0,182(a0)
    2fa4:	8f840000 	lw	a0,0(gp)
    2fa8:	a06200b9 	sb	v0,185(v1)
    2fac:	1000fe84 	b	29c0 <uw_init_context_1+0xb8>
    2fb0:	a08200b8 	sb	v0,184(a0)

00002fb4 <_Unwind_Backtrace>:
    2fb4:	3c1c0000 	lui	gp,0x0
    2fb8:	279c0000 	addiu	gp,gp,0
    2fbc:	0399e021 	addu	gp,gp,t9
    2fc0:	27bdf5a0 	addiu	sp,sp,-2656
    2fc4:	afbf0a2c 	sw	ra,2604(sp)
    2fc8:	afbe0a28 	sw	s8,2600(sp)
    2fcc:	afb70a24 	sw	s7,2596(sp)
    2fd0:	afb60a20 	sw	s6,2592(sp)
    2fd4:	afb50a1c 	sw	s5,2588(sp)
    2fd8:	afb40a18 	sw	s4,2584(sp)
    2fdc:	afb30a14 	sw	s3,2580(sp)
    2fe0:	afb20a10 	sw	s2,2576(sp)
    2fe4:	afb10a0c 	sw	s1,2572(sp)
    2fe8:	afb00a08 	sw	s0,2568(sp)
    2fec:	f7be0a58 	sdc1	$f30,2648(sp)
    2ff0:	f7bc0a50 	sdc1	$f28,2640(sp)
    2ff4:	f7ba0a48 	sdc1	$f26,2632(sp)
    2ff8:	f7b80a40 	sdc1	$f24,2624(sp)
    2ffc:	f7b60a38 	sdc1	$f22,2616(sp)
    3000:	f7b40a30 	sdc1	$f20,2608(sp)
    3004:	afbc0010 	sw	gp,16(sp)
    3008:	8f990000 	lw	t9,0(gp)
    300c:	27b10018 	addiu	s1,sp,24
    3010:	0080b821 	move	s7,a0
    3014:	00a0b021 	move	s6,a1
    3018:	03e03021 	move	a2,ra
    301c:	02202021 	move	a0,s1
    3020:	27392908 	addiu	t9,t9,10504
    3024:	0320f809 	jalr	t9
    3028:	27a50a60 	addiu	a1,sp,2656
    302c:	8fbc0010 	lw	gp,16(sp)
    3030:	27b203f0 	addiu	s2,sp,1008
    3034:	24130005 	li	s3,5
    3038:	8f820000 	lw	v0,0(gp)
    303c:	8f830000 	lw	v1,0(gp)
    3040:	245420a4 	addiu	s4,v0,8356
    3044:	10000005 	b	305c <_Unwind_Backtrace+0xa8>
    3048:	24751fd0 	addiu	s5,v1,8144
    304c:	12130016 	beq	s0,s3,30a8 <_Unwind_Backtrace+0xf4>
    3050:	02a0c821 	move	t9,s5
    3054:	0320f809 	jalr	t9
    3058:	00000000 	nop
    305c:	02202021 	move	a0,s1
    3060:	0280c821 	move	t9,s4
    3064:	0320f809 	jalr	t9
    3068:	02402821 	move	a1,s2
    306c:	8fbc0010 	lw	gp,16(sp)
    3070:	02202021 	move	a0,s1
    3074:	02c02821 	move	a1,s6
    3078:	10400003 	beqz	v0,3088 <_Unwind_Backtrace+0xd4>
    307c:	00408021 	move	s0,v0
    3080:	14530008 	bne	v0,s3,30a4 <_Unwind_Backtrace+0xf0>
    3084:	00000000 	nop
    3088:	02e0c821 	move	t9,s7
    308c:	0320f809 	jalr	t9
    3090:	00000000 	nop
    3094:	8fbc0010 	lw	gp,16(sp)
    3098:	02202021 	move	a0,s1
    309c:	1040ffeb 	beqz	v0,304c <_Unwind_Backtrace+0x98>
    30a0:	02402821 	move	a1,s2
    30a4:	24100003 	li	s0,3
    30a8:	8fbf0a2c 	lw	ra,2604(sp)
    30ac:	02001021 	move	v0,s0
    30b0:	8fbe0a28 	lw	s8,2600(sp)
    30b4:	8fb70a24 	lw	s7,2596(sp)
    30b8:	8fb60a20 	lw	s6,2592(sp)
    30bc:	8fb50a1c 	lw	s5,2588(sp)
    30c0:	8fb40a18 	lw	s4,2584(sp)
    30c4:	8fb30a14 	lw	s3,2580(sp)
    30c8:	8fb20a10 	lw	s2,2576(sp)
    30cc:	8fb10a0c 	lw	s1,2572(sp)
    30d0:	8fb00a08 	lw	s0,2568(sp)
    30d4:	d7be0a58 	ldc1	$f30,2648(sp)
    30d8:	d7bc0a50 	ldc1	$f28,2640(sp)
    30dc:	d7ba0a48 	ldc1	$f26,2632(sp)
    30e0:	d7b80a40 	ldc1	$f24,2624(sp)
    30e4:	d7b60a38 	ldc1	$f22,2616(sp)
    30e8:	d7b40a30 	ldc1	$f20,2608(sp)
    30ec:	03e00008 	jr	ra
    30f0:	27bd0a60 	addiu	sp,sp,2656

000030f4 <_Unwind_ForcedUnwind_Phase2>:
    30f4:	3c1c0000 	lui	gp,0x0
    30f8:	279c0000 	addiu	gp,gp,0
    30fc:	0399e021 	addu	gp,gp,t9
    3100:	27bdf998 	addiu	sp,sp,-1640
    3104:	afbf0664 	sw	ra,1636(sp)
    3108:	afbe0660 	sw	s8,1632(sp)
    310c:	afb7065c 	sw	s7,1628(sp)
    3110:	afb60658 	sw	s6,1624(sp)
    3114:	afb50654 	sw	s5,1620(sp)
    3118:	afb40650 	sw	s4,1616(sp)
    311c:	afb3064c 	sw	s3,1612(sp)
    3120:	afb20648 	sw	s2,1608(sp)
    3124:	afb10644 	sw	s1,1604(sp)
    3128:	afb00640 	sw	s0,1600(sp)
    312c:	afbc0020 	sw	gp,32(sp)
    3130:	8f820000 	lw	v0,0(gp)
    3134:	8f830000 	lw	v1,0(gp)
    3138:	00809021 	move	s2,a0
    313c:	8c95000c 	lw	s5,12(a0)
    3140:	8c940010 	lw	s4,16(a0)
    3144:	00a08821 	move	s1,a1
    3148:	245720a4 	addiu	s7,v0,8356
    314c:	247e1fd0 	addiu	s8,v1,8144
    3150:	27b30028 	addiu	s3,sp,40
    3154:	10000015 	b	31ac <_Unwind_ForcedUnwind_Phase2+0xb8>
    3158:	24160005 	li	s6,5
    315c:	1216002b 	beq	s0,s6,320c <_Unwind_ForcedUnwind_Phase2+0x118>
    3160:	8fb90628 	lw	t9,1576(sp)
    3164:	1320000d 	beqz	t9,319c <_Unwind_ForcedUnwind_Phase2+0xa8>
    3168:	00000000 	nop
    316c:	8e460000 	lw	a2,0(s2)
    3170:	8e470004 	lw	a3,4(s2)
    3174:	afb20010 	sw	s2,16(sp)
    3178:	0320f809 	jalr	t9
    317c:	afb10014 	sw	s1,20(sp)
    3180:	00408021 	move	s0,v0
    3184:	24020007 	li	v0,7
    3188:	12020020 	beq	s0,v0,320c <_Unwind_ForcedUnwind_Phase2+0x118>
    318c:	8fbc0020 	lw	gp,32(sp)
    3190:	24190008 	li	t9,8
    3194:	1619001d 	bne	s0,t9,320c <_Unwind_ForcedUnwind_Phase2+0x118>
    3198:	24100002 	li	s0,2
    319c:	02202021 	move	a0,s1
    31a0:	03c0c821 	move	t9,s8
    31a4:	0320f809 	jalr	t9
    31a8:	02602821 	move	a1,s3
    31ac:	02202021 	move	a0,s1
    31b0:	02e0c821 	move	t9,s7
    31b4:	0320f809 	jalr	t9
    31b8:	02602821 	move	a1,s3
    31bc:	8fbc0020 	lw	gp,32(sp)
    31c0:	24040001 	li	a0,1
    31c4:	00408021 	move	s0,v0
    31c8:	10400004 	beqz	v0,31dc <_Unwind_ForcedUnwind_Phase2+0xe8>
    31cc:	2405000a 	li	a1,10
    31d0:	1456000d 	bne	v0,s6,3208 <_Unwind_ForcedUnwind_Phase2+0x114>
    31d4:	00000000 	nop
    31d8:	2405001a 	li	a1,26
    31dc:	8e460000 	lw	a2,0(s2)
    31e0:	8e470004 	lw	a3,4(s2)
    31e4:	02a0c821 	move	t9,s5
    31e8:	afb20010 	sw	s2,16(sp)
    31ec:	afb10014 	sw	s1,20(sp)
    31f0:	0320f809 	jalr	t9
    31f4:	afb40018 	sw	s4,24(sp)
    31f8:	8fbc0020 	lw	gp,32(sp)
    31fc:	24040001 	li	a0,1
    3200:	1040ffd6 	beqz	v0,315c <_Unwind_ForcedUnwind_Phase2+0x68>
    3204:	2405000a 	li	a1,10
    3208:	24100002 	li	s0,2
    320c:	8fbf0664 	lw	ra,1636(sp)
    3210:	02001021 	move	v0,s0
    3214:	8fbe0660 	lw	s8,1632(sp)
    3218:	8fb7065c 	lw	s7,1628(sp)
    321c:	8fb60658 	lw	s6,1624(sp)
    3220:	8fb50654 	lw	s5,1620(sp)
    3224:	8fb40650 	lw	s4,1616(sp)
    3228:	8fb3064c 	lw	s3,1612(sp)
    322c:	8fb20648 	lw	s2,1608(sp)
    3230:	8fb10644 	lw	s1,1604(sp)
    3234:	8fb00640 	lw	s0,1600(sp)
    3238:	03e00008 	jr	ra
    323c:	27bd0668 	addiu	sp,sp,1640

00003240 <_Unwind_ForcedUnwind>:
    3240:	3c1c0000 	lui	gp,0x0
    3244:	279c0000 	addiu	gp,gp,0
    3248:	0399e021 	addu	gp,gp,t9
    324c:	27bdf7d0 	addiu	sp,sp,-2096
    3250:	afbf07fc 	sw	ra,2044(sp)
    3254:	afbe07f8 	sw	s8,2040(sp)
    3258:	afb707f4 	sw	s7,2036(sp)
    325c:	afb607f0 	sw	s6,2032(sp)
    3260:	afb507ec 	sw	s5,2028(sp)
    3264:	afb407e8 	sw	s4,2024(sp)
    3268:	afb307e4 	sw	s3,2020(sp)
    326c:	afb207e0 	sw	s2,2016(sp)
    3270:	afb107dc 	sw	s1,2012(sp)
    3274:	afb007d8 	sw	s0,2008(sp)
    3278:	afa707d4 	sw	a3,2004(sp)
    327c:	afa607d0 	sw	a2,2000(sp)
    3280:	afa507cc 	sw	a1,1996(sp)
    3284:	afa407c8 	sw	a0,1992(sp)
    3288:	f7be0828 	sdc1	$f30,2088(sp)
    328c:	f7bc0820 	sdc1	$f28,2080(sp)
    3290:	f7ba0818 	sdc1	$f26,2072(sp)
    3294:	f7b80810 	sdc1	$f24,2064(sp)
    3298:	f7b60808 	sdc1	$f22,2056(sp)
    329c:	f7b40800 	sdc1	$f20,2048(sp)
    32a0:	afbc0010 	sw	gp,16(sp)
    32a4:	8f990000 	lw	t9,0(gp)
    32a8:	27b00018 	addiu	s0,sp,24
    32ac:	00809021 	move	s2,a0
    32b0:	00a09821 	move	s3,a1
    32b4:	00c0a021 	move	s4,a2
    32b8:	02002021 	move	a0,s0
    32bc:	03e03021 	move	a2,ra
    32c0:	27392908 	addiu	t9,t9,10504
    32c4:	0320f809 	jalr	t9
    32c8:	27a50830 	addiu	a1,sp,2096
    32cc:	8fbc0010 	lw	gp,16(sp)
    32d0:	27b103f0 	addiu	s1,sp,1008
    32d4:	02003021 	move	a2,s0
    32d8:	02203821 	move	a3,s1
    32dc:	27a803e8 	addiu	t0,sp,1000
    32e0:	8cc20000 	lw	v0,0(a2)
    32e4:	8cc30004 	lw	v1,4(a2)
    32e8:	8cc40008 	lw	a0,8(a2)
    32ec:	8cc5000c 	lw	a1,12(a2)
    32f0:	24c60010 	addiu	a2,a2,16
    32f4:	ace20000 	sw	v0,0(a3)
    32f8:	ace30004 	sw	v1,4(a3)
    32fc:	ace40008 	sw	a0,8(a3)
    3300:	ace5000c 	sw	a1,12(a3)
    3304:	14c8fff6 	bne	a2,t0,32e0 <_Unwind_ForcedUnwind+0xa0>
    3308:	24e70010 	addiu	a3,a3,16
    330c:	8cc30000 	lw	v1,0(a2)
    3310:	8cc20004 	lw	v0,4(a2)
    3314:	8f990000 	lw	t9,0(gp)
    3318:	ae53000c 	sw	s3,12(s2)
    331c:	ae540010 	sw	s4,16(s2)
    3320:	02402021 	move	a0,s2
    3324:	ace30000 	sw	v1,0(a3)
    3328:	02202821 	move	a1,s1
    332c:	273930f4 	addiu	t9,t9,12532
    3330:	0320f809 	jalr	t9
    3334:	ace20004 	sw	v0,4(a3)
    3338:	00401821 	move	v1,v0
    333c:	24020007 	li	v0,7
    3340:	1062001b 	beq	v1,v0,33b0 <_Unwind_ForcedUnwind+0x170>
    3344:	8fbc0010 	lw	gp,16(sp)
    3348:	00602021 	move	a0,v1
    334c:	00001821 	move	v1,zero
    3350:	8fbf07fc 	lw	ra,2044(sp)
    3354:	00801021 	move	v0,a0
    3358:	8fbe07f8 	lw	s8,2040(sp)
    335c:	8fb707f4 	lw	s7,2036(sp)
    3360:	8fb607f0 	lw	s6,2032(sp)
    3364:	8fb507ec 	lw	s5,2028(sp)
    3368:	8fb407e8 	lw	s4,2024(sp)
    336c:	8fb307e4 	lw	s3,2020(sp)
    3370:	8fb207e0 	lw	s2,2016(sp)
    3374:	8fb107dc 	lw	s1,2012(sp)
    3378:	8fb007d8 	lw	s0,2008(sp)
    337c:	8fa707d4 	lw	a3,2004(sp)
    3380:	8fa607d0 	lw	a2,2000(sp)
    3384:	8fa507cc 	lw	a1,1996(sp)
    3388:	8fa407c8 	lw	a0,1992(sp)
    338c:	d7be0828 	ldc1	$f30,2088(sp)
    3390:	d7bc0820 	ldc1	$f28,2080(sp)
    3394:	d7ba0818 	ldc1	$f26,2072(sp)
    3398:	d7b80810 	ldc1	$f24,2064(sp)
    339c:	d7b60808 	ldc1	$f22,2056(sp)
    33a0:	d7b40800 	ldc1	$f20,2048(sp)
    33a4:	27bd0830 	addiu	sp,sp,2096
    33a8:	03e00008 	jr	ra
    33ac:	03a3e821 	addu	sp,sp,v1
    33b0:	8f990000 	lw	t9,0(gp)
    33b4:	02002021 	move	a0,s0
    33b8:	2739127c 	addiu	t9,t9,4732
    33bc:	0320f809 	jalr	t9
    33c0:	02202821 	move	a1,s1
    33c4:	00401821 	move	v1,v0
    33c8:	8fa206e8 	lw	v0,1768(sp)
    33cc:	8fbc0010 	lw	gp,16(sp)
    33d0:	1000ffdf 	b	3350 <_Unwind_ForcedUnwind+0x110>
    33d4:	afa207fc 	sw	v0,2044(sp)

000033d8 <_Unwind_RaiseException_Phase2>:
    33d8:	3c1c0000 	lui	gp,0x0
    33dc:	279c0000 	addiu	gp,gp,0
    33e0:	0399e021 	addu	gp,gp,t9
    33e4:	27bdf9a0 	addiu	sp,sp,-1632
    33e8:	afbf065c 	sw	ra,1628(sp)
    33ec:	afbe0658 	sw	s8,1624(sp)
    33f0:	afb70654 	sw	s7,1620(sp)
    33f4:	afb60650 	sw	s6,1616(sp)
    33f8:	afb5064c 	sw	s5,1612(sp)
    33fc:	afb40648 	sw	s4,1608(sp)
    3400:	afb30644 	sw	s3,1604(sp)
    3404:	afb20640 	sw	s2,1600(sp)
    3408:	afb1063c 	sw	s1,1596(sp)
    340c:	afb00638 	sw	s0,1592(sp)
    3410:	afbc0018 	sw	gp,24(sp)
    3414:	8f820000 	lw	v0,0(gp)
    3418:	8f830000 	lw	v1,0(gp)
    341c:	00a08821 	move	s1,a1
    3420:	245520a4 	addiu	s5,v0,8356
    3424:	27b30020 	addiu	s3,sp,32
    3428:	00809021 	move	s2,a0
    342c:	02602821 	move	a1,s3
    3430:	02202021 	move	a0,s1
    3434:	02a0c821 	move	t9,s5
    3438:	0320f809 	jalr	t9
    343c:	24761fd0 	addiu	s6,v1,8144
    3440:	8e2302f4 	lw	v1,756(s1)
    3444:	8e440010 	lw	a0,16(s2)
    3448:	24140004 	li	s4,4
    344c:	00008021 	move	s0,zero
    3450:	00641826 	xor	v1,v1,a0
    3454:	241e0007 	li	s8,7
    3458:	24170008 	li	s7,8
    345c:	8fbc0018 	lw	gp,24(sp)
    3460:	1440001e 	bnez	v0,34dc <_Unwind_RaiseException_Phase2+0x104>
    3464:	0283800a 	movz	s0,s4,v1
    3468:	8fb90620 	lw	t9,1568(sp)
    346c:	1320000b 	beqz	t9,349c <_Unwind_RaiseException_Phase2+0xc4>
    3470:	24040001 	li	a0,1
    3474:	8e460000 	lw	a2,0(s2)
    3478:	8e470004 	lw	a3,4(s2)
    347c:	afb20010 	sw	s2,16(sp)
    3480:	afb10014 	sw	s1,20(sp)
    3484:	0320f809 	jalr	t9
    3488:	36050002 	ori	a1,s0,0x2
    348c:	105e0014 	beq	v0,s8,34e0 <_Unwind_RaiseException_Phase2+0x108>
    3490:	8fbc0018 	lw	gp,24(sp)
    3494:	14570012 	bne	v0,s7,34e0 <_Unwind_RaiseException_Phase2+0x108>
    3498:	24020002 	li	v0,2
    349c:	1600001c 	bnez	s0,3510 <_Unwind_RaiseException_Phase2+0x138>
    34a0:	02202021 	move	a0,s1
    34a4:	02c0c821 	move	t9,s6
    34a8:	0320f809 	jalr	t9
    34ac:	02602821 	move	a1,s3
    34b0:	02202021 	move	a0,s1
    34b4:	02a0c821 	move	t9,s5
    34b8:	0320f809 	jalr	t9
    34bc:	02602821 	move	a1,s3
    34c0:	8e2302f4 	lw	v1,756(s1)
    34c4:	8e440010 	lw	a0,16(s2)
    34c8:	00008021 	move	s0,zero
    34cc:	8fbc0018 	lw	gp,24(sp)
    34d0:	00641826 	xor	v1,v1,a0
    34d4:	1040ffe4 	beqz	v0,3468 <_Unwind_RaiseException_Phase2+0x90>
    34d8:	0283800a 	movz	s0,s4,v1
    34dc:	24020002 	li	v0,2
    34e0:	8fbf065c 	lw	ra,1628(sp)
    34e4:	8fbe0658 	lw	s8,1624(sp)
    34e8:	8fb70654 	lw	s7,1620(sp)
    34ec:	8fb60650 	lw	s6,1616(sp)
    34f0:	8fb5064c 	lw	s5,1612(sp)
    34f4:	8fb40648 	lw	s4,1608(sp)
    34f8:	8fb30644 	lw	s3,1604(sp)
    34fc:	8fb20640 	lw	s2,1600(sp)
    3500:	8fb1063c 	lw	s1,1596(sp)
    3504:	8fb00638 	lw	s0,1592(sp)
    3508:	03e00008 	jr	ra
    350c:	27bd0660 	addiu	sp,sp,1632
    3510:	8f990000 	lw	t9,0(gp)
    3514:	0320f809 	jalr	t9
    3518:	00000000 	nop

0000351c <_Unwind_Resume>:
    351c:	3c1c0000 	lui	gp,0x0
    3520:	279c0000 	addiu	gp,gp,0
    3524:	0399e021 	addu	gp,gp,t9
    3528:	27bdf7d0 	addiu	sp,sp,-2096
    352c:	afbf07fc 	sw	ra,2044(sp)
    3530:	afbe07f8 	sw	s8,2040(sp)
    3534:	afb707f4 	sw	s7,2036(sp)
    3538:	afb607f0 	sw	s6,2032(sp)
    353c:	afb507ec 	sw	s5,2028(sp)
    3540:	afb407e8 	sw	s4,2024(sp)
    3544:	afb307e4 	sw	s3,2020(sp)
    3548:	afb207e0 	sw	s2,2016(sp)
    354c:	afb107dc 	sw	s1,2012(sp)
    3550:	afb007d8 	sw	s0,2008(sp)
    3554:	afa707d4 	sw	a3,2004(sp)
    3558:	afa607d0 	sw	a2,2000(sp)
    355c:	afa507cc 	sw	a1,1996(sp)
    3560:	afa407c8 	sw	a0,1992(sp)
    3564:	f7be0828 	sdc1	$f30,2088(sp)
    3568:	f7bc0820 	sdc1	$f28,2080(sp)
    356c:	f7ba0818 	sdc1	$f26,2072(sp)
    3570:	f7b80810 	sdc1	$f24,2064(sp)
    3574:	f7b60808 	sdc1	$f22,2056(sp)
    3578:	f7b40800 	sdc1	$f20,2048(sp)
    357c:	afbc0010 	sw	gp,16(sp)
    3580:	8f990000 	lw	t9,0(gp)
    3584:	27b20018 	addiu	s2,sp,24
    3588:	03e03021 	move	a2,ra
    358c:	00808021 	move	s0,a0
    3590:	27a50830 	addiu	a1,sp,2096
    3594:	27392908 	addiu	t9,t9,10504
    3598:	0320f809 	jalr	t9
    359c:	02402021 	move	a0,s2
    35a0:	8fbc0010 	lw	gp,16(sp)
    35a4:	27b103f0 	addiu	s1,sp,1008
    35a8:	02403021 	move	a2,s2
    35ac:	02203821 	move	a3,s1
    35b0:	27a803e8 	addiu	t0,sp,1000
    35b4:	8cc20000 	lw	v0,0(a2)
    35b8:	8cc30004 	lw	v1,4(a2)
    35bc:	8cc40008 	lw	a0,8(a2)
    35c0:	8cc5000c 	lw	a1,12(a2)
    35c4:	24c60010 	addiu	a2,a2,16
    35c8:	ace20000 	sw	v0,0(a3)
    35cc:	ace30004 	sw	v1,4(a3)
    35d0:	ace40008 	sw	a0,8(a3)
    35d4:	ace5000c 	sw	a1,12(a3)
    35d8:	14c8fff6 	bne	a2,t0,35b4 <_Unwind_Resume+0x98>
    35dc:	24e70010 	addiu	a3,a3,16
    35e0:	8cc20004 	lw	v0,4(a2)
    35e4:	8cc30000 	lw	v1,0(a2)
    35e8:	8e04000c 	lw	a0,12(s0)
    35ec:	ace20004 	sw	v0,4(a3)
    35f0:	1080000d 	beqz	a0,3628 <_Unwind_Resume+0x10c>
    35f4:	ace30000 	sw	v1,0(a3)
    35f8:	8f990000 	lw	t9,0(gp)
    35fc:	02002021 	move	a0,s0
    3600:	273930f4 	addiu	t9,t9,12532
    3604:	0320f809 	jalr	t9
    3608:	02202821 	move	a1,s1
    360c:	8fbc0010 	lw	gp,16(sp)
    3610:	00401821 	move	v1,v0
    3614:	24020007 	li	v0,7
    3618:	1062000b 	beq	v1,v0,3648 <_Unwind_Resume+0x12c>
    361c:	8f990000 	lw	t9,0(gp)
    3620:	0320f809 	jalr	t9
    3624:	00000000 	nop
    3628:	8f990000 	lw	t9,0(gp)
    362c:	02002021 	move	a0,s0
    3630:	273933d8 	addiu	t9,t9,13272
    3634:	0320f809 	jalr	t9
    3638:	02202821 	move	a1,s1
    363c:	8fbc0010 	lw	gp,16(sp)
    3640:	1000fff4 	b	3614 <_Unwind_Resume+0xf8>
    3644:	00401821 	move	v1,v0
    3648:	8f990000 	lw	t9,0(gp)
    364c:	02402021 	move	a0,s2
    3650:	2739127c 	addiu	t9,t9,4732
    3654:	0320f809 	jalr	t9
    3658:	02202821 	move	a1,s1
    365c:	00401821 	move	v1,v0
    3660:	8fa206e8 	lw	v0,1768(sp)
    3664:	8fbc0010 	lw	gp,16(sp)
    3668:	8fbe07f8 	lw	s8,2040(sp)
    366c:	afa207fc 	sw	v0,2044(sp)
    3670:	8fbf07fc 	lw	ra,2044(sp)
    3674:	8fb707f4 	lw	s7,2036(sp)
    3678:	8fb607f0 	lw	s6,2032(sp)
    367c:	8fb507ec 	lw	s5,2028(sp)
    3680:	8fb407e8 	lw	s4,2024(sp)
    3684:	8fb307e4 	lw	s3,2020(sp)
    3688:	8fb207e0 	lw	s2,2016(sp)
    368c:	8fb107dc 	lw	s1,2012(sp)
    3690:	8fb007d8 	lw	s0,2008(sp)
    3694:	8fa707d4 	lw	a3,2004(sp)
    3698:	8fa607d0 	lw	a2,2000(sp)
    369c:	8fa507cc 	lw	a1,1996(sp)
    36a0:	8fa407c8 	lw	a0,1992(sp)
    36a4:	d7be0828 	ldc1	$f30,2088(sp)
    36a8:	d7bc0820 	ldc1	$f28,2080(sp)
    36ac:	d7ba0818 	ldc1	$f26,2072(sp)
    36b0:	d7b80810 	ldc1	$f24,2064(sp)
    36b4:	d7b60808 	ldc1	$f22,2056(sp)
    36b8:	d7b40800 	ldc1	$f20,2048(sp)
    36bc:	27bd0830 	addiu	sp,sp,2096
    36c0:	03e00008 	jr	ra
    36c4:	03a3e821 	addu	sp,sp,v1

000036c8 <__frame_state_for>:
    36c8:	3c1c0000 	lui	gp,0x0
    36cc:	279c0000 	addiu	gp,gp,0
    36d0:	0399e021 	addu	gp,gp,t9
    36d4:	27bdf5e8 	addiu	sp,sp,-2584
    36d8:	afbf0a14 	sw	ra,2580(sp)
    36dc:	afb20a10 	sw	s2,2576(sp)
    36e0:	afb10a0c 	sw	s1,2572(sp)
    36e4:	afb00a08 	sw	s0,2568(sp)
    36e8:	afbc0010 	sw	gp,16(sp)
    36ec:	8f990000 	lw	t9,0(gp)
    36f0:	27b10018 	addiu	s1,sp,24
    36f4:	00808021 	move	s0,a0
    36f8:	240603d8 	li	a2,984
    36fc:	02202021 	move	a0,s1
    3700:	00a09021 	move	s2,a1
    3704:	0320f809 	jalr	t9
    3708:	00002821 	move	a1,zero
    370c:	8fbc0010 	lw	gp,16(sp)
    3710:	3c024000 	lui	v0,0x4000
    3714:	26100001 	addiu	s0,s0,1
    3718:	8f990000 	lw	t9,0(gp)
    371c:	02202021 	move	a0,s1
    3720:	27a503f0 	addiu	a1,sp,1008
    3724:	afa20324 	sw	v0,804(sp)
    3728:	273920a4 	addiu	t9,t9,8356
    372c:	0320f809 	jalr	t9
    3730:	afb00310 	sw	s0,784(sp)
    3734:	10400009 	beqz	v0,375c <__frame_state_for+0x94>
    3738:	8fbc0010 	lw	gp,16(sp)
    373c:	00009021 	move	s2,zero
    3740:	8fbf0a14 	lw	ra,2580(sp)
    3744:	02401021 	move	v0,s2
    3748:	8fb20a10 	lw	s2,2576(sp)
    374c:	8fb10a0c 	lw	s1,2572(sp)
    3750:	8fb00a08 	lw	s0,2568(sp)
    3754:	03e00008 	jr	ra
    3758:	27bd0a18 	addiu	sp,sp,2584
    375c:	8fa209e8 	lw	v0,2536(sp)
    3760:	24030002 	li	v1,2
    3764:	1043fff5 	beq	v0,v1,373c <__frame_state_for+0x74>
    3768:	27a303f4 	addiu	v1,sp,1012
    376c:	02402821 	move	a1,s2
    3770:	02402021 	move	a0,s2
    3774:	27a709dc 	addiu	a3,sp,2524
    3778:	24060001 	li	a2,1
    377c:	10000008 	b	37a0 <__frame_state_for+0xd8>
    3780:	24080002 	li	t0,2
    3784:	10480009 	beq	v0,t0,37ac <__frame_state_for+0xe4>
    3788:	00000000 	nop
    378c:	ac800010 	sw	zero,16(a0)
    3790:	24630008 	addiu	v1,v1,8
    3794:	24a50001 	addiu	a1,a1,1
    3798:	10e30007 	beq	a3,v1,37b8 <__frame_state_for+0xf0>
    379c:	24840004 	addiu	a0,a0,4
    37a0:	80620000 	lb	v0,0(v1)
    37a4:	1446fff7 	bne	v0,a2,3784 <__frame_state_for+0xbc>
    37a8:	a0a20308 	sb	v0,776(a1)
    37ac:	8c62fffc 	lw	v0,-4(v1)
    37b0:	1000fff7 	b	3790 <__frame_state_for+0xc8>
    37b4:	ac820010 	sw	v0,16(a0)
    37b8:	8fa209dc 	lw	v0,2524(sp)
    37bc:	8fa309e0 	lw	v1,2528(sp)
    37c0:	ae420008 	sw	v0,8(s2)
    37c4:	8fa209fc 	lw	v0,2556(sp)
    37c8:	a6430304 	sh	v1,772(s2)
    37cc:	8fa3032c 	lw	v1,812(sp)
    37d0:	a6420306 	sh	v0,774(s2)
    37d4:	8fa20a04 	lw	v0,2564(sp)
    37d8:	ae43000c 	sw	v1,12(s2)
    37dc:	1000ffd8 	b	3740 <__frame_state_for+0x78>
    37e0:	ae420004 	sw	v0,4(s2)

000037e4 <_Unwind_RaiseException>:
    37e4:	3c1c0000 	lui	gp,0x0
    37e8:	279c0000 	addiu	gp,gp,0
    37ec:	0399e021 	addu	gp,gp,t9
    37f0:	27bdf1a8 	addiu	sp,sp,-3672
    37f4:	afbf0e24 	sw	ra,3620(sp)
    37f8:	afbe0e20 	sw	s8,3616(sp)
    37fc:	afb70e1c 	sw	s7,3612(sp)
    3800:	afb60e18 	sw	s6,3608(sp)
    3804:	afb50e14 	sw	s5,3604(sp)
    3808:	afb40e10 	sw	s4,3600(sp)
    380c:	afb30e0c 	sw	s3,3596(sp)
    3810:	afb20e08 	sw	s2,3592(sp)
    3814:	afb10e04 	sw	s1,3588(sp)
    3818:	afb00e00 	sw	s0,3584(sp)
    381c:	afa70dfc 	sw	a3,3580(sp)
    3820:	afa60df8 	sw	a2,3576(sp)
    3824:	afa50df4 	sw	a1,3572(sp)
    3828:	afa40df0 	sw	a0,3568(sp)
    382c:	f7be0e50 	sdc1	$f30,3664(sp)
    3830:	f7bc0e48 	sdc1	$f28,3656(sp)
    3834:	f7ba0e40 	sdc1	$f26,3648(sp)
    3838:	f7b80e38 	sdc1	$f24,3640(sp)
    383c:	f7b60e30 	sdc1	$f22,3632(sp)
    3840:	f7b40e28 	sdc1	$f20,3624(sp)
    3844:	afbc0018 	sw	gp,24(sp)
    3848:	8f990000 	lw	t9,0(gp)
    384c:	27a20020 	addiu	v0,sp,32
    3850:	03e03021 	move	a2,ra
    3854:	afa20de8 	sw	v0,3560(sp)
    3858:	00809021 	move	s2,a0
    385c:	27a50e58 	addiu	a1,sp,3672
    3860:	27392908 	addiu	t9,t9,10504
    3864:	0320f809 	jalr	t9
    3868:	00402021 	move	a0,v0
    386c:	8fbc0018 	lw	gp,24(sp)
    3870:	8fa60de8 	lw	a2,3560(sp)
    3874:	27b003f8 	addiu	s0,sp,1016
    3878:	02003821 	move	a3,s0
    387c:	27be03f0 	addiu	s8,sp,1008
    3880:	8cc20000 	lw	v0,0(a2)
    3884:	8cc30004 	lw	v1,4(a2)
    3888:	8cc40008 	lw	a0,8(a2)
    388c:	8cc5000c 	lw	a1,12(a2)
    3890:	24c60010 	addiu	a2,a2,16
    3894:	ace20000 	sw	v0,0(a3)
    3898:	ace30004 	sw	v1,4(a3)
    389c:	ace40008 	sw	a0,8(a3)
    38a0:	ace5000c 	sw	a1,12(a3)
    38a4:	14defff6 	bne	a2,s8,3880 <_Unwind_RaiseException+0x9c>
    38a8:	24e70010 	addiu	a3,a3,16
    38ac:	8fc30000 	lw	v1,0(s8)
    38b0:	8fc20004 	lw	v0,4(s8)
    38b4:	27b107d0 	addiu	s1,sp,2000
    38b8:	ace30000 	sw	v1,0(a3)
    38bc:	ace20004 	sw	v0,4(a3)
    38c0:	8f830000 	lw	v1,0(gp)
    38c4:	8f820000 	lw	v0,0(gp)
    38c8:	24130005 	li	s3,5
    38cc:	24751fd0 	addiu	s5,v1,8144
    38d0:	245420a4 	addiu	s4,v0,8356
    38d4:	24170006 	li	s7,6
    38d8:	10000012 	b	3924 <_Unwind_RaiseException+0x140>
    38dc:	24160008 	li	s6,8
    38e0:	14400033 	bnez	v0,39b0 <_Unwind_RaiseException+0x1cc>
    38e4:	8fb90dd0 	lw	t9,3536(sp)
    38e8:	1320000a 	beqz	t9,3914 <_Unwind_RaiseException+0x130>
    38ec:	00000000 	nop
    38f0:	8e460000 	lw	a2,0(s2)
    38f4:	8e470004 	lw	a3,4(s2)
    38f8:	afb20010 	sw	s2,16(sp)
    38fc:	0320f809 	jalr	t9
    3900:	afb00014 	sw	s0,20(sp)
    3904:	1057002c 	beq	v0,s7,39b8 <_Unwind_RaiseException+0x1d4>
    3908:	8fbc0018 	lw	gp,24(sp)
    390c:	1456000e 	bne	v0,s6,3948 <_Unwind_RaiseException+0x164>
    3910:	24030003 	li	v1,3
    3914:	02002021 	move	a0,s0
    3918:	02a0c821 	move	t9,s5
    391c:	0320f809 	jalr	t9
    3920:	02202821 	move	a1,s1
    3924:	02002021 	move	a0,s0
    3928:	0280c821 	move	t9,s4
    392c:	0320f809 	jalr	t9
    3930:	02202821 	move	a1,s1
    3934:	8fbc0018 	lw	gp,24(sp)
    3938:	24040001 	li	a0,1
    393c:	24050001 	li	a1,1
    3940:	1453ffe7 	bne	v0,s3,38e0 <_Unwind_RaiseException+0xfc>
    3944:	00401821 	move	v1,v0
    3948:	00602021 	move	a0,v1
    394c:	00001821 	move	v1,zero
    3950:	8fbf0e24 	lw	ra,3620(sp)
    3954:	00801021 	move	v0,a0
    3958:	8fbe0e20 	lw	s8,3616(sp)
    395c:	8fb70e1c 	lw	s7,3612(sp)
    3960:	8fb60e18 	lw	s6,3608(sp)
    3964:	8fb50e14 	lw	s5,3604(sp)
    3968:	8fb40e10 	lw	s4,3600(sp)
    396c:	8fb30e0c 	lw	s3,3596(sp)
    3970:	8fb20e08 	lw	s2,3592(sp)
    3974:	8fb10e04 	lw	s1,3588(sp)
    3978:	8fb00e00 	lw	s0,3584(sp)
    397c:	8fa70dfc 	lw	a3,3580(sp)
    3980:	8fa60df8 	lw	a2,3576(sp)
    3984:	8fa50df4 	lw	a1,3572(sp)
    3988:	8fa40df0 	lw	a0,3568(sp)
    398c:	d7be0e50 	ldc1	$f30,3664(sp)
    3990:	d7bc0e48 	ldc1	$f28,3656(sp)
    3994:	d7ba0e40 	ldc1	$f26,3648(sp)
    3998:	d7b80e38 	ldc1	$f24,3640(sp)
    399c:	d7b60e30 	ldc1	$f22,3632(sp)
    39a0:	d7b40e28 	ldc1	$f20,3624(sp)
    39a4:	27bd0e58 	addiu	sp,sp,3672
    39a8:	03e00008 	jr	ra
    39ac:	03a3e821 	addu	sp,sp,v1
    39b0:	1000ffe5 	b	3948 <_Unwind_RaiseException+0x164>
    39b4:	24030003 	li	v1,3
    39b8:	8fa206ec 	lw	v0,1772(sp)
    39bc:	8fa60de8 	lw	a2,3560(sp)
    39c0:	ae40000c 	sw	zero,12(s2)
    39c4:	ae420010 	sw	v0,16(s2)
    39c8:	02003821 	move	a3,s0
    39cc:	8cc20000 	lw	v0,0(a2)
    39d0:	8cc30004 	lw	v1,4(a2)
    39d4:	8cc40008 	lw	a0,8(a2)
    39d8:	8cc5000c 	lw	a1,12(a2)
    39dc:	24c60010 	addiu	a2,a2,16
    39e0:	ace20000 	sw	v0,0(a3)
    39e4:	ace30004 	sw	v1,4(a3)
    39e8:	ace40008 	sw	a0,8(a3)
    39ec:	ace5000c 	sw	a1,12(a3)
    39f0:	14defff6 	bne	a2,s8,39cc <_Unwind_RaiseException+0x1e8>
    39f4:	24e70010 	addiu	a3,a3,16
    39f8:	8cc30000 	lw	v1,0(a2)
    39fc:	8cc20004 	lw	v0,4(a2)
    3a00:	8f990000 	lw	t9,0(gp)
    3a04:	ace30000 	sw	v1,0(a3)
    3a08:	02402021 	move	a0,s2
    3a0c:	02002821 	move	a1,s0
    3a10:	273933d8 	addiu	t9,t9,13272
    3a14:	0320f809 	jalr	t9
    3a18:	ace20004 	sw	v0,4(a3)
    3a1c:	00401821 	move	v1,v0
    3a20:	24020007 	li	v0,7
    3a24:	1462ffc8 	bne	v1,v0,3948 <_Unwind_RaiseException+0x164>
    3a28:	8fbc0018 	lw	gp,24(sp)
    3a2c:	8f990000 	lw	t9,0(gp)
    3a30:	8fa40de8 	lw	a0,3560(sp)
    3a34:	2739127c 	addiu	t9,t9,4732
    3a38:	0320f809 	jalr	t9
    3a3c:	02002821 	move	a1,s0
    3a40:	00401821 	move	v1,v0
    3a44:	8fa206f0 	lw	v0,1776(sp)
    3a48:	8fbc0018 	lw	gp,24(sp)
    3a4c:	1000ffc0 	b	3950 <_Unwind_RaiseException+0x16c>
    3a50:	afa20e24 	sw	v0,3620(sp)

00003a54 <_Unwind_Resume_or_Rethrow>:
    3a54:	3c1c0000 	lui	gp,0x0
    3a58:	279c0000 	addiu	gp,gp,0
    3a5c:	0399e021 	addu	gp,gp,t9
    3a60:	27bdf7d0 	addiu	sp,sp,-2096
    3a64:	afbf07fc 	sw	ra,2044(sp)
    3a68:	afbe07f8 	sw	s8,2040(sp)
    3a6c:	afb707f4 	sw	s7,2036(sp)
    3a70:	afb607f0 	sw	s6,2032(sp)
    3a74:	afb507ec 	sw	s5,2028(sp)
    3a78:	afb407e8 	sw	s4,2024(sp)
    3a7c:	afb307e4 	sw	s3,2020(sp)
    3a80:	afb207e0 	sw	s2,2016(sp)
    3a84:	afb107dc 	sw	s1,2012(sp)
    3a88:	afb007d8 	sw	s0,2008(sp)
    3a8c:	afa707d4 	sw	a3,2004(sp)
    3a90:	afa607d0 	sw	a2,2000(sp)
    3a94:	afa507cc 	sw	a1,1996(sp)
    3a98:	afa407c8 	sw	a0,1992(sp)
    3a9c:	f7be0828 	sdc1	$f30,2088(sp)
    3aa0:	f7bc0820 	sdc1	$f28,2080(sp)
    3aa4:	f7ba0818 	sdc1	$f26,2072(sp)
    3aa8:	f7b80810 	sdc1	$f24,2064(sp)
    3aac:	f7b60808 	sdc1	$f22,2056(sp)
    3ab0:	f7b40800 	sdc1	$f20,2048(sp)
    3ab4:	afbc0010 	sw	gp,16(sp)
    3ab8:	8c82000c 	lw	v0,12(a0)
    3abc:	00809021 	move	s2,a0
    3ac0:	1440001f 	bnez	v0,3b40 <_Unwind_Resume_or_Rethrow+0xec>
    3ac4:	03e03021 	move	a2,ra
    3ac8:	8f990000 	lw	t9,0(gp)
    3acc:	0320f809 	jalr	t9
    3ad0:	00000000 	nop
    3ad4:	8fbc0010 	lw	gp,16(sp)
    3ad8:	00402021 	move	a0,v0
    3adc:	00001821 	move	v1,zero
    3ae0:	8fbf07fc 	lw	ra,2044(sp)
    3ae4:	00801021 	move	v0,a0
    3ae8:	8fbe07f8 	lw	s8,2040(sp)
    3aec:	8fb707f4 	lw	s7,2036(sp)
    3af0:	8fb607f0 	lw	s6,2032(sp)
    3af4:	8fb507ec 	lw	s5,2028(sp)
    3af8:	8fb407e8 	lw	s4,2024(sp)
    3afc:	8fb307e4 	lw	s3,2020(sp)
    3b00:	8fb207e0 	lw	s2,2016(sp)
    3b04:	8fb107dc 	lw	s1,2012(sp)
    3b08:	8fb007d8 	lw	s0,2008(sp)
    3b0c:	8fa707d4 	lw	a3,2004(sp)
    3b10:	8fa607d0 	lw	a2,2000(sp)
    3b14:	8fa507cc 	lw	a1,1996(sp)
    3b18:	8fa407c8 	lw	a0,1992(sp)
    3b1c:	d7be0828 	ldc1	$f30,2088(sp)
    3b20:	d7bc0820 	ldc1	$f28,2080(sp)
    3b24:	d7ba0818 	ldc1	$f26,2072(sp)
    3b28:	d7b80810 	ldc1	$f24,2064(sp)
    3b2c:	d7b60808 	ldc1	$f22,2056(sp)
    3b30:	d7b40800 	ldc1	$f20,2048(sp)
    3b34:	27bd0830 	addiu	sp,sp,2096
    3b38:	03e00008 	jr	ra
    3b3c:	03a3e821 	addu	sp,sp,v1
    3b40:	8f990000 	lw	t9,0(gp)
    3b44:	27b00018 	addiu	s0,sp,24
    3b48:	02002021 	move	a0,s0
    3b4c:	27392908 	addiu	t9,t9,10504
    3b50:	0320f809 	jalr	t9
    3b54:	27a50830 	addiu	a1,sp,2096
    3b58:	8fbc0010 	lw	gp,16(sp)
    3b5c:	27b103f0 	addiu	s1,sp,1008
    3b60:	02003021 	move	a2,s0
    3b64:	02203821 	move	a3,s1
    3b68:	27a803e8 	addiu	t0,sp,1000
    3b6c:	8cc20000 	lw	v0,0(a2)
    3b70:	8cc30004 	lw	v1,4(a2)
    3b74:	8cc40008 	lw	a0,8(a2)
    3b78:	8cc5000c 	lw	a1,12(a2)
    3b7c:	24c60010 	addiu	a2,a2,16
    3b80:	ace20000 	sw	v0,0(a3)
    3b84:	ace30004 	sw	v1,4(a3)
    3b88:	ace40008 	sw	a0,8(a3)
    3b8c:	ace5000c 	sw	a1,12(a3)
    3b90:	14c8fff6 	bne	a2,t0,3b6c <_Unwind_Resume_or_Rethrow+0x118>
    3b94:	24e70010 	addiu	a3,a3,16
    3b98:	8cc30000 	lw	v1,0(a2)
    3b9c:	8cc20004 	lw	v0,4(a2)
    3ba0:	8f990000 	lw	t9,0(gp)
    3ba4:	ace30000 	sw	v1,0(a3)
    3ba8:	02402021 	move	a0,s2
    3bac:	02202821 	move	a1,s1
    3bb0:	273930f4 	addiu	t9,t9,12532
    3bb4:	0320f809 	jalr	t9
    3bb8:	ace20004 	sw	v0,4(a3)
    3bbc:	24030007 	li	v1,7
    3bc0:	10430004 	beq	v0,v1,3bd4 <_Unwind_Resume_or_Rethrow+0x180>
    3bc4:	8fbc0010 	lw	gp,16(sp)
    3bc8:	8f990000 	lw	t9,0(gp)
    3bcc:	0320f809 	jalr	t9
    3bd0:	00000000 	nop
    3bd4:	8f990000 	lw	t9,0(gp)
    3bd8:	02002021 	move	a0,s0
    3bdc:	2739127c 	addiu	t9,t9,4732
    3be0:	0320f809 	jalr	t9
    3be4:	02202821 	move	a1,s1
    3be8:	00401821 	move	v1,v0
    3bec:	8fa206e8 	lw	v0,1768(sp)
    3bf0:	8fbc0010 	lw	gp,16(sp)
    3bf4:	1000ffba 	b	3ae0 <_Unwind_Resume_or_Rethrow+0x8c>
    3bf8:	afa207fc 	sw	v0,2044(sp)
    3bfc:	00000000 	nop

unwind-dw2-fde-glibc.o:     file format elf32-tradlittlemips

Disassembly of section .text:

00000000 <__register_frame_info_bases>:
       0:	3c1c0000 	lui	gp,0x0
       4:	279c0000 	addiu	gp,gp,0
       8:	0399e021 	addu	gp,gp,t9
       c:	27bdffd8 	addiu	sp,sp,-40
      10:	afbf0024 	sw	ra,36(sp)
      14:	afb10020 	sw	s1,32(sp)
      18:	afb0001c 	sw	s0,28(sp)
      1c:	afbc0010 	sw	gp,16(sp)
      20:	10800021 	beqz	a0,a8 <__register_frame_info_bases+0xa8>
      24:	00a08821 	move	s1,a1
      28:	8c820000 	lw	v0,0(a0)
      2c:	1040001e 	beqz	v0,a8 <__register_frame_info_bases+0xa8>
      30:	2403ffff 	li	v1,-1
      34:	00001021 	move	v0,zero
      38:	7c6250c4 	ins	v0,v1,0x3,0x8
      3c:	aca20010 	sw	v0,16(a1)
      40:	8f820000 	lw	v0,0(gp)
      44:	aca60004 	sw	a2,4(a1)
      48:	aca70008 	sw	a3,8(a1)
      4c:	aca4000c 	sw	a0,12(a1)
      50:	10400011 	beqz	v0,98 <__register_frame_info_bases+0x98>
      54:	aca30000 	sw	v1,0(a1)
      58:	8f900000 	lw	s0,0(gp)
      5c:	8f990000 	lw	t9,0(gp)
      60:	0320f809 	jalr	t9
      64:	26040000 	addiu	a0,s0,0
      68:	8fbc0010 	lw	gp,16(sp)
      6c:	26040000 	addiu	a0,s0,0
      70:	8fbf0024 	lw	ra,36(sp)
      74:	8f830000 	lw	v1,0(gp)
      78:	8f990000 	lw	t9,0(gp)
      7c:	8fb0001c 	lw	s0,28(sp)
      80:	8c620028 	lw	v0,40(v1)
      84:	ae220014 	sw	v0,20(s1)
      88:	ac710028 	sw	s1,40(v1)
      8c:	8fb10020 	lw	s1,32(sp)
      90:	03200008 	jr	t9
      94:	27bd0028 	addiu	sp,sp,40
      98:	8f830000 	lw	v1,0(gp)
      9c:	8c620028 	lw	v0,40(v1)
      a0:	aca20014 	sw	v0,20(a1)
      a4:	ac650028 	sw	a1,40(v1)
      a8:	8fbf0024 	lw	ra,36(sp)
      ac:	8fb10020 	lw	s1,32(sp)
      b0:	8fb0001c 	lw	s0,28(sp)
      b4:	03e00008 	jr	ra
      b8:	27bd0028 	addiu	sp,sp,40

000000bc <__register_frame_info>:
      bc:	3c1c0000 	lui	gp,0x0
      c0:	279c0000 	addiu	gp,gp,0
      c4:	0399e021 	addu	gp,gp,t9
      c8:	8f990000 	lw	t9,0(gp)
      cc:	00003021 	move	a2,zero
      d0:	03200008 	jr	t9
      d4:	00003821 	move	a3,zero

000000d8 <__register_frame_info_table_bases>:
      d8:	3c1c0000 	lui	gp,0x0
      dc:	279c0000 	addiu	gp,gp,0
      e0:	0399e021 	addu	gp,gp,t9
      e4:	27bdffd8 	addiu	sp,sp,-40
      e8:	afbf0024 	sw	ra,36(sp)
      ec:	afb10020 	sw	s1,32(sp)
      f0:	afb0001c 	sw	s0,28(sp)
      f4:	afbc0010 	sw	gp,16(sp)
      f8:	2403ffff 	li	v1,-1
      fc:	24020002 	li	v0,2
     100:	7c6250c4 	ins	v0,v1,0x3,0x8
     104:	aca20010 	sw	v0,16(a1)
     108:	8f820000 	lw	v0,0(gp)
     10c:	00a08821 	move	s1,a1
     110:	aca60004 	sw	a2,4(a1)
     114:	aca70008 	sw	a3,8(a1)
     118:	aca4000c 	sw	a0,12(a1)
     11c:	10400011 	beqz	v0,164 <__register_frame_info_table_bases+0x8c>
     120:	aca30000 	sw	v1,0(a1)
     124:	8f900000 	lw	s0,0(gp)
     128:	8f990000 	lw	t9,0(gp)
     12c:	0320f809 	jalr	t9
     130:	26040000 	addiu	a0,s0,0
     134:	8fbc0010 	lw	gp,16(sp)
     138:	26040000 	addiu	a0,s0,0
     13c:	8fbf0024 	lw	ra,36(sp)
     140:	8f830000 	lw	v1,0(gp)
     144:	8f990000 	lw	t9,0(gp)
     148:	8fb0001c 	lw	s0,28(sp)
     14c:	8c620028 	lw	v0,40(v1)
     150:	ae220014 	sw	v0,20(s1)
     154:	ac710028 	sw	s1,40(v1)
     158:	8fb10020 	lw	s1,32(sp)
     15c:	03200008 	jr	t9
     160:	27bd0028 	addiu	sp,sp,40
     164:	8f830000 	lw	v1,0(gp)
     168:	8fbf0024 	lw	ra,36(sp)
     16c:	8fb10020 	lw	s1,32(sp)
     170:	8c620028 	lw	v0,40(v1)
     174:	8fb0001c 	lw	s0,28(sp)
     178:	27bd0028 	addiu	sp,sp,40
     17c:	aca20014 	sw	v0,20(a1)
     180:	03e00008 	jr	ra
     184:	ac650028 	sw	a1,40(v1)

00000188 <__register_frame_info_table>:
     188:	3c1c0000 	lui	gp,0x0
     18c:	279c0000 	addiu	gp,gp,0
     190:	0399e021 	addu	gp,gp,t9
     194:	8f990000 	lw	t9,0(gp)
     198:	00003021 	move	a2,zero
     19c:	03200008 	jr	t9
     1a0:	00003821 	move	a3,zero

000001a4 <fde_unencoded_compare>:
     1a4:	8ca50008 	lw	a1,8(a1)
     1a8:	8cc30008 	lw	v1,8(a2)
     1ac:	0065102b 	sltu	v0,v1,a1
     1b0:	10400003 	beqz	v0,1c0 <fde_unencoded_compare+0x1c>
     1b4:	24040001 	li	a0,1
     1b8:	03e00008 	jr	ra
     1bc:	00801021 	move	v0,a0
     1c0:	00a3182b 	sltu	v1,a1,v1
     1c4:	2402ffff 	li	v0,-1
     1c8:	00002021 	move	a0,zero
     1cc:	1000fffa 	b	1b8 <fde_unencoded_compare+0x14>
     1d0:	0043200b 	movn	a0,v0,v1

000001d4 <frame_downheap>:
     1d4:	27bdffc0 	addiu	sp,sp,-64
     1d8:	afbf003c 	sw	ra,60(sp)
     1dc:	afbe0038 	sw	s8,56(sp)
     1e0:	afb70034 	sw	s7,52(sp)
     1e4:	afb60030 	sw	s6,48(sp)
     1e8:	afb5002c 	sw	s5,44(sp)
     1ec:	afb40028 	sw	s4,40(sp)
     1f0:	afb30024 	sw	s3,36(sp)
     1f4:	afb20020 	sw	s2,32(sp)
     1f8:	afb1001c 	sw	s1,28(sp)
     1fc:	afb00018 	sw	s0,24(sp)
     200:	afbc0010 	sw	gp,16(sp)
     204:	8fb60050 	lw	s6,80(sp)
     208:	00071040 	sll	v0,a3,0x1
     20c:	24520001 	addiu	s2,v0,1
     210:	0256182a 	slt	v1,s2,s6
     214:	0080f021 	move	s8,a0
     218:	00a0b821 	move	s7,a1
     21c:	10600034 	beqz	v1,2f0 <frame_downheap+0x11c>
     220:	00c0a821 	move	s5,a2
     224:	10000015 	b	27c <frame_downheap+0xa8>
     228:	00e0a021 	move	s4,a3
     22c:	00141080 	sll	v0,s4,0x2
     230:	02a59821 	addu	s3,s5,a1
     234:	02a28021 	addu	s0,s5,v0
     238:	8e050000 	lw	a1,0(s0)
     23c:	8e660000 	lw	a2,0(s3)
     240:	02408821 	move	s1,s2
     244:	02e0c821 	move	t9,s7
     248:	0320f809 	jalr	t9
     24c:	03c02021 	move	a0,s8
     250:	00111840 	sll	v1,s1,0x1
     254:	24720001 	addiu	s2,v1,1
     258:	0220a021 	move	s4,s1
     25c:	8fbc0010 	lw	gp,16(sp)
     260:	04410023 	bgez	v0,2f0 <frame_downheap+0x11c>
     264:	0256202a 	slt	a0,s2,s6
     268:	8e030000 	lw	v1,0(s0)
     26c:	8e620000 	lw	v0,0(s3)
     270:	ae020000 	sw	v0,0(s0)
     274:	1080001e 	beqz	a0,2f0 <frame_downheap+0x11c>
     278:	ae630000 	sw	v1,0(s3)
     27c:	26510001 	addiu	s1,s2,1
     280:	0236102a 	slt	v0,s1,s6
     284:	1040ffe9 	beqz	v0,22c <frame_downheap+0x58>
     288:	00122880 	sll	a1,s2,0x2
     28c:	00121080 	sll	v0,s2,0x2
     290:	00118080 	sll	s0,s1,0x2
     294:	02a29821 	addu	s3,s5,v0
     298:	02b08021 	addu	s0,s5,s0
     29c:	8e650000 	lw	a1,0(s3)
     2a0:	8e060000 	lw	a2,0(s0)
     2a4:	02e0c821 	move	t9,s7
     2a8:	0320f809 	jalr	t9
     2ac:	03c02021 	move	a0,s8
     2b0:	28420000 	slti	v0,v0,0
     2b4:	0242880a 	movz	s1,s2,v0
     2b8:	0202980b 	movn	s3,s0,v0
     2bc:	00141080 	sll	v0,s4,0x2
     2c0:	02a28021 	addu	s0,s5,v0
     2c4:	8e050000 	lw	a1,0(s0)
     2c8:	8e660000 	lw	a2,0(s3)
     2cc:	02e0c821 	move	t9,s7
     2d0:	0320f809 	jalr	t9
     2d4:	03c02021 	move	a0,s8
     2d8:	00111840 	sll	v1,s1,0x1
     2dc:	24720001 	addiu	s2,v1,1
     2e0:	0220a021 	move	s4,s1
     2e4:	8fbc0010 	lw	gp,16(sp)
     2e8:	0440ffdf 	bltz	v0,268 <frame_downheap+0x94>
     2ec:	0256202a 	slt	a0,s2,s6
     2f0:	8fbf003c 	lw	ra,60(sp)
     2f4:	8fbe0038 	lw	s8,56(sp)
     2f8:	8fb70034 	lw	s7,52(sp)
     2fc:	8fb60030 	lw	s6,48(sp)
     300:	8fb5002c 	lw	s5,44(sp)
     304:	8fb40028 	lw	s4,40(sp)
     308:	8fb30024 	lw	s3,36(sp)
     30c:	8fb20020 	lw	s2,32(sp)
     310:	8fb1001c 	lw	s1,28(sp)
     314:	8fb00018 	lw	s0,24(sp)
     318:	03e00008 	jr	ra
     31c:	27bd0040 	addiu	sp,sp,64

00000320 <frame_heapsort>:
     320:	3c1c0000 	lui	gp,0x0
     324:	279c0000 	addiu	gp,gp,0
     328:	0399e021 	addu	gp,gp,t9
     32c:	27bdffb8 	addiu	sp,sp,-72
     330:	afbf0044 	sw	ra,68(sp)
     334:	afb70040 	sw	s7,64(sp)
     338:	afb6003c 	sw	s6,60(sp)
     33c:	afb50038 	sw	s5,56(sp)
     340:	afb40034 	sw	s4,52(sp)
     344:	afb30030 	sw	s3,48(sp)
     348:	afb2002c 	sw	s2,44(sp)
     34c:	afb10028 	sw	s1,40(sp)
     350:	afb00024 	sw	s0,36(sp)
     354:	afbc0018 	sw	gp,24(sp)
     358:	8cd30004 	lw	s3,4(a2)
     35c:	00c0a821 	move	s5,a2
     360:	0080b821 	move	s7,a0
     364:	00131042 	srl	v0,s3,0x1
     368:	2450ffff 	addiu	s0,v0,-1
     36c:	00a0b021 	move	s6,a1
     370:	0600000d 	bltz	s0,3a8 <frame_heapsort+0x88>
     374:	24d40008 	addiu	s4,a2,8
     378:	8f830000 	lw	v1,0(gp)
     37c:	247201d4 	addiu	s2,v1,468
     380:	02003821 	move	a3,s0
     384:	02e02021 	move	a0,s7
     388:	02c02821 	move	a1,s6
     38c:	02803021 	move	a2,s4
     390:	afb30010 	sw	s3,16(sp)
     394:	0240c821 	move	t9,s2
     398:	0320f809 	jalr	t9
     39c:	2610ffff 	addiu	s0,s0,-1
     3a0:	0601fff7 	bgez	s0,380 <frame_heapsort+0x60>
     3a4:	8fbc0018 	lw	gp,24(sp)
     3a8:	2671ffff 	addiu	s1,s3,-1
     3ac:	1a200014 	blez	s1,400 <frame_heapsort+0xe0>
     3b0:	8f830000 	lw	v1,0(gp)
     3b4:	26620001 	addiu	v0,s3,1
     3b8:	00021080 	sll	v0,v0,0x2
     3bc:	02a28021 	addu	s0,s5,v0
     3c0:	247201d4 	addiu	s2,v1,468
     3c4:	8e020000 	lw	v0,0(s0)
     3c8:	8ea30008 	lw	v1,8(s5)
     3cc:	02e02021 	move	a0,s7
     3d0:	afb10010 	sw	s1,16(sp)
     3d4:	02c02821 	move	a1,s6
     3d8:	aea20008 	sw	v0,8(s5)
     3dc:	02803021 	move	a2,s4
     3e0:	ae030000 	sw	v1,0(s0)
     3e4:	00003821 	move	a3,zero
     3e8:	0240c821 	move	t9,s2
     3ec:	0320f809 	jalr	t9
     3f0:	2631ffff 	addiu	s1,s1,-1
     3f4:	8fbc0018 	lw	gp,24(sp)
     3f8:	1e20fff2 	bgtz	s1,3c4 <frame_heapsort+0xa4>
     3fc:	2610fffc 	addiu	s0,s0,-4
     400:	8fbf0044 	lw	ra,68(sp)
     404:	8fb70040 	lw	s7,64(sp)
     408:	8fb6003c 	lw	s6,60(sp)
     40c:	8fb50038 	lw	s5,56(sp)
     410:	8fb40034 	lw	s4,52(sp)
     414:	8fb30030 	lw	s3,48(sp)
     418:	8fb2002c 	lw	s2,44(sp)
     41c:	8fb10028 	lw	s1,40(sp)
     420:	8fb00024 	lw	s0,36(sp)
     424:	03e00008 	jr	ra
     428:	27bd0048 	addiu	sp,sp,72

0000042c <size_of_encoded_value>:
     42c:	3c1c0000 	lui	gp,0x0
     430:	279c0000 	addiu	gp,gp,0
     434:	0399e021 	addu	gp,gp,t9
     438:	27bdffe0 	addiu	sp,sp,-32
     43c:	afbf001c 	sw	ra,28(sp)
     440:	afbc0010 	sw	gp,16(sp)
     444:	308400ff 	andi	a0,a0,0xff
     448:	240200ff 	li	v0,255
     44c:	1082001a 	beq	a0,v0,4b8 <size_of_encoded_value+0x8c>
     450:	30840007 	andi	a0,a0,0x7
     454:	24020002 	li	v0,2
     458:	10820013 	beq	a0,v0,4a8 <size_of_encoded_value+0x7c>
     45c:	28820003 	slti	v0,a0,3
     460:	14400008 	bnez	v0,484 <size_of_encoded_value+0x58>
     464:	24020003 	li	v0,3
     468:	10820008 	beq	a0,v0,48c <size_of_encoded_value+0x60>
     46c:	24020004 	li	v0,4
     470:	1082000a 	beq	a0,v0,49c <size_of_encoded_value+0x70>
     474:	8fbf001c 	lw	ra,28(sp)
     478:	8f990000 	lw	t9,0(gp)
     47c:	0320f809 	jalr	t9
     480:	00000000 	nop
     484:	1480fffd 	bnez	a0,47c <size_of_encoded_value+0x50>
     488:	8f990000 	lw	t9,0(gp)
     48c:	8fbf001c 	lw	ra,28(sp)
     490:	24020004 	li	v0,4
     494:	03e00008 	jr	ra
     498:	27bd0020 	addiu	sp,sp,32
     49c:	24020008 	li	v0,8
     4a0:	03e00008 	jr	ra
     4a4:	27bd0020 	addiu	sp,sp,32
     4a8:	8fbf001c 	lw	ra,28(sp)
     4ac:	24020002 	li	v0,2
     4b0:	03e00008 	jr	ra
     4b4:	27bd0020 	addiu	sp,sp,32
     4b8:	8fbf001c 	lw	ra,28(sp)
     4bc:	00001021 	move	v0,zero
     4c0:	03e00008 	jr	ra
     4c4:	27bd0020 	addiu	sp,sp,32

000004c8 <base_from_object>:
     4c8:	3c1c0000 	lui	gp,0x0
     4cc:	279c0000 	addiu	gp,gp,0
     4d0:	0399e021 	addu	gp,gp,t9
     4d4:	27bdffe0 	addiu	sp,sp,-32
     4d8:	afbf001c 	sw	ra,28(sp)
     4dc:	afbc0010 	sw	gp,16(sp)
     4e0:	308400ff 	andi	a0,a0,0xff
     4e4:	240200ff 	li	v0,255
     4e8:	1082000f 	beq	a0,v0,528 <base_from_object+0x60>
     4ec:	24020020 	li	v0,32
     4f0:	30840070 	andi	a0,a0,0x70
     4f4:	10820018 	beq	a0,v0,558 <base_from_object+0x90>
     4f8:	28820021 	slti	v0,a0,33
     4fc:	14400008 	bnez	v0,520 <base_from_object+0x58>
     500:	24020030 	li	v0,48
     504:	10820010 	beq	a0,v0,548 <base_from_object+0x80>
     508:	24020050 	li	v0,80
     50c:	10820007 	beq	a0,v0,52c <base_from_object+0x64>
     510:	8fbf001c 	lw	ra,28(sp)
     514:	8f990000 	lw	t9,0(gp)
     518:	0320f809 	jalr	t9
     51c:	00000000 	nop
     520:	14800005 	bnez	a0,538 <base_from_object+0x70>
     524:	24020010 	li	v0,16
     528:	8fbf001c 	lw	ra,28(sp)
     52c:	00001021 	move	v0,zero
     530:	03e00008 	jr	ra
     534:	27bd0020 	addiu	sp,sp,32
     538:	1482fff7 	bne	a0,v0,518 <base_from_object+0x50>
     53c:	8f990000 	lw	t9,0(gp)
     540:	1000fffa 	b	52c <base_from_object+0x64>
     544:	8fbf001c 	lw	ra,28(sp)
     548:	8fbf001c 	lw	ra,28(sp)
     54c:	8ca20008 	lw	v0,8(a1)
     550:	03e00008 	jr	ra
     554:	27bd0020 	addiu	sp,sp,32
     558:	8fbf001c 	lw	ra,28(sp)
     55c:	8ca20004 	lw	v0,4(a1)
     560:	03e00008 	jr	ra
     564:	27bd0020 	addiu	sp,sp,32

00000568 <read_encoded_value_with_base>:
     568:	3c1c0000 	lui	gp,0x0
     56c:	279c0000 	addiu	gp,gp,0
     570:	0399e021 	addu	gp,gp,t9
     574:	27bdffe0 	addiu	sp,sp,-32
     578:	afbf001c 	sw	ra,28(sp)
     57c:	afbc0010 	sw	gp,16(sp)
     580:	308a00ff 	andi	t2,a0,0xff
     584:	24020050 	li	v0,80
     588:	1142001f 	beq	t2,v0,608 <read_encoded_value_with_base+0xa0>
     58c:	3143000f 	andi	v1,t2,0xf
     590:	2c62000d 	sltiu	v0,v1,13
     594:	14400004 	bnez	v0,5a8 <read_encoded_value_with_base+0x40>
     598:	00c05821 	move	t3,a2
     59c:	8f990000 	lw	t9,0(gp)
     5a0:	0320f809 	jalr	t9
     5a4:	00000000 	nop
     5a8:	00031080 	sll	v0,v1,0x2
     5ac:	8f830000 	lw	v1,0(gp)
     5b0:	24630000 	addiu	v1,v1,0
     5b4:	00621821 	addu	v1,v1,v0
     5b8:	8c640000 	lw	a0,0(v1)
     5bc:	009c2021 	addu	a0,a0,gp
     5c0:	00800008 	jr	a0
     5c4:	00000000 	nop
     5c8:	88c80003 	lwl	t0,3(a2)
     5cc:	98c80000 	lwr	t0,0(a2)
     5d0:	24c60004 	addiu	a2,a2,4
     5d4:	11000007 	beqz	t0,5f4 <read_encoded_value_with_base+0x8c>
     5d8:	31420070 	andi	v0,t2,0x70
     5dc:	38420010 	xori	v0,v0,0x10
     5e0:	0162280a 	movz	a1,t3,v0
     5e4:	7c0a1c20 	seb	v1,t2
     5e8:	04610002 	bgez	v1,5f4 <read_encoded_value_with_base+0x8c>
     5ec:	01054021 	addu	t0,t0,a1
     5f0:	8d080000 	lw	t0,0(t0)
     5f4:	8fbf001c 	lw	ra,28(sp)
     5f8:	00c01021 	move	v0,a2
     5fc:	ace80000 	sw	t0,0(a3)
     600:	03e00008 	jr	ra
     604:	27bd0020 	addiu	sp,sp,32
     608:	24c20003 	addiu	v0,a2,3
     60c:	2403fffc 	li	v1,-4
     610:	00431024 	and	v0,v0,v1
     614:	8c480000 	lw	t0,0(v0)
     618:	8fbf001c 	lw	ra,28(sp)
     61c:	24460004 	addiu	a2,v0,4
     620:	00c01021 	move	v0,a2
     624:	ace80000 	sw	t0,0(a3)
     628:	03e00008 	jr	ra
     62c:	27bd0020 	addiu	sp,sp,32
     630:	88c80003 	lwl	t0,3(a2)
     634:	98c80000 	lwr	t0,0(a2)
     638:	1000ffe6 	b	5d4 <read_encoded_value_with_base+0x6c>
     63c:	24c60008 	addiu	a2,a2,8
     640:	90c20001 	lbu	v0,1(a2)
     644:	90c30000 	lbu	v1,0(a2)
     648:	24c60002 	addiu	a2,a2,2
     64c:	00021200 	sll	v0,v0,0x8
     650:	00431025 	or	v0,v0,v1
     654:	1000ffdf 	b	5d4 <read_encoded_value_with_base+0x6c>
     658:	7c024620 	seh	t0,v0
     65c:	00004821 	move	t1,zero
     660:	00004021 	move	t0,zero
     664:	90c40000 	lbu	a0,0(a2)
     668:	24c60001 	addiu	a2,a2,1
     66c:	3082007f 	andi	v0,a0,0x7f
     670:	01221004 	sllv	v0,v0,t1
     674:	7c041c20 	seb	v1,a0
     678:	01024025 	or	t0,t0,v0
     67c:	0460fff9 	bltz	v1,664 <read_encoded_value_with_base+0xfc>
     680:	25290007 	addiu	t1,t1,7
     684:	2d220020 	sltiu	v0,t1,32
     688:	1040ffd2 	beqz	v0,5d4 <read_encoded_value_with_base+0x6c>
     68c:	30820040 	andi	v0,a0,0x40
     690:	1040ffd0 	beqz	v0,5d4 <read_encoded_value_with_base+0x6c>
     694:	2402ffff 	li	v0,-1
     698:	01221004 	sllv	v0,v0,t1
     69c:	1000ffcd 	b	5d4 <read_encoded_value_with_base+0x6c>
     6a0:	00484025 	or	t0,v0,t0
     6a4:	90c20001 	lbu	v0,1(a2)
     6a8:	90c30000 	lbu	v1,0(a2)
     6ac:	24c60002 	addiu	a2,a2,2
     6b0:	00021200 	sll	v0,v0,0x8
     6b4:	1000ffc7 	b	5d4 <read_encoded_value_with_base+0x6c>
     6b8:	00434025 	or	t0,v0,v1
     6bc:	00004021 	move	t0,zero
     6c0:	00002021 	move	a0,zero
     6c4:	90c30000 	lbu	v1,0(a2)
     6c8:	24c60001 	addiu	a2,a2,1
     6cc:	3062007f 	andi	v0,v1,0x7f
     6d0:	00821004 	sllv	v0,v0,a0
     6d4:	7c031c20 	seb	v1,v1
     6d8:	01024025 	or	t0,t0,v0
     6dc:	0460fff9 	bltz	v1,6c4 <read_encoded_value_with_base+0x15c>
     6e0:	24840007 	addiu	a0,a0,7
     6e4:	1000ffbb 	b	5d4 <read_encoded_value_with_base+0x6c>
     6e8:	00000000 	nop

000006ec <get_cie_encoding>:
     6ec:	3c1c0000 	lui	gp,0x0
     6f0:	279c0000 	addiu	gp,gp,0
     6f4:	0399e021 	addu	gp,gp,t9
     6f8:	27bdffc0 	addiu	sp,sp,-64
     6fc:	afbf003c 	sw	ra,60(sp)
     700:	afb50038 	sw	s5,56(sp)
     704:	afb40034 	sw	s4,52(sp)
     708:	afb30030 	sw	s3,48(sp)
     70c:	afb2002c 	sw	s2,44(sp)
     710:	afb10028 	sw	s1,40(sp)
     714:	afb00024 	sw	s0,36(sp)
     718:	afbc0010 	sw	gp,16(sp)
     71c:	90830009 	lbu	v1,9(a0)
     720:	2402007a 	li	v0,122
     724:	1062000b 	beq	v1,v0,754 <get_cie_encoding+0x68>
     728:	00808021 	move	s0,a0
     72c:	8fbf003c 	lw	ra,60(sp)
     730:	00001021 	move	v0,zero
     734:	8fb50038 	lw	s5,56(sp)
     738:	8fb40034 	lw	s4,52(sp)
     73c:	8fb30030 	lw	s3,48(sp)
     740:	8fb2002c 	lw	s2,44(sp)
     744:	8fb10028 	lw	s1,40(sp)
     748:	8fb00024 	lw	s0,36(sp)
     74c:	03e00008 	jr	ra
     750:	27bd0040 	addiu	sp,sp,64
     754:	8f990000 	lw	t9,0(gp)
     758:	0320f809 	jalr	t9
     75c:	24840009 	addiu	a0,a0,9
     760:	8fbc0010 	lw	gp,16(sp)
     764:	02021021 	addu	v0,s0,v0
     768:	2446000a 	addiu	a2,v0,10
     76c:	90c20000 	lbu	v0,0(a2)
     770:	7c021420 	seb	v0,v0
     774:	0440fffd 	bltz	v0,76c <get_cie_encoding+0x80>
     778:	24c60001 	addiu	a2,a2,1
     77c:	90c20000 	lbu	v0,0(a2)
     780:	7c021420 	seb	v0,v0
     784:	0440fffd 	bltz	v0,77c <get_cie_encoding+0x90>
     788:	24c60001 	addiu	a2,a2,1
     78c:	92030008 	lbu	v1,8(s0)
     790:	24020001 	li	v0,1
     794:	1062002e 	beq	v1,v0,850 <get_cie_encoding+0x164>
     798:	00000000 	nop
     79c:	90c20000 	lbu	v0,0(a2)
     7a0:	7c021420 	seb	v0,v0
     7a4:	0440fffd 	bltz	v0,79c <get_cie_encoding+0xb0>
     7a8:	24c60001 	addiu	a2,a2,1
     7ac:	90c20000 	lbu	v0,0(a2)
     7b0:	7c021420 	seb	v0,v0
     7b4:	0440fffd 	bltz	v0,7ac <get_cie_encoding+0xc0>
     7b8:	24c60001 	addiu	a2,a2,1
     7bc:	9203000a 	lbu	v1,10(s0)
     7c0:	24020052 	li	v0,82
     7c4:	1062000f 	beq	v1,v0,804 <get_cie_encoding+0x118>
     7c8:	2610000a 	addiu	s0,s0,10
     7cc:	8f820000 	lw	v0,0(gp)
     7d0:	24120050 	li	s2,80
     7d4:	27b50018 	addiu	s5,sp,24
     7d8:	24540568 	addiu	s4,v0,1384
     7dc:	2413004c 	li	s3,76
     7e0:	24110052 	li	s1,82
     7e4:	10720011 	beq	v1,s2,82c <get_cie_encoding+0x140>
     7e8:	00002821 	move	a1,zero
     7ec:	1473ffcf 	bne	v1,s3,72c <get_cie_encoding+0x40>
     7f0:	24c60001 	addiu	a2,a2,1
     7f4:	26100001 	addiu	s0,s0,1
     7f8:	92030000 	lbu	v1,0(s0)
     7fc:	1471fff9 	bne	v1,s1,7e4 <get_cie_encoding+0xf8>
     800:	00000000 	nop
     804:	8fbf003c 	lw	ra,60(sp)
     808:	90c20000 	lbu	v0,0(a2)
     80c:	8fb50038 	lw	s5,56(sp)
     810:	8fb40034 	lw	s4,52(sp)
     814:	8fb30030 	lw	s3,48(sp)
     818:	8fb2002c 	lw	s2,44(sp)
     81c:	8fb10028 	lw	s1,40(sp)
     820:	8fb00024 	lw	s0,36(sp)
     824:	03e00008 	jr	ra
     828:	27bd0040 	addiu	sp,sp,64
     82c:	90c40000 	lbu	a0,0(a2)
     830:	24c60001 	addiu	a2,a2,1
     834:	3084007f 	andi	a0,a0,0x7f
     838:	0280c821 	move	t9,s4
     83c:	0320f809 	jalr	t9
     840:	02a03821 	move	a3,s5
     844:	8fbc0010 	lw	gp,16(sp)
     848:	1000ffea 	b	7f4 <get_cie_encoding+0x108>
     84c:	00403021 	move	a2,v0
     850:	1000ffd6 	b	7ac <get_cie_encoding+0xc0>
     854:	24c60001 	addiu	a2,a2,1

00000858 <classify_object_over_fdes>:
     858:	3c1c0000 	lui	gp,0x0
     85c:	279c0000 	addiu	gp,gp,0
     860:	0399e021 	addu	gp,gp,t9
     864:	27bdffb8 	addiu	sp,sp,-72
     868:	afbf0044 	sw	ra,68(sp)
     86c:	afbe0040 	sw	s8,64(sp)
     870:	afb7003c 	sw	s7,60(sp)
     874:	afb60038 	sw	s6,56(sp)
     878:	afb50034 	sw	s5,52(sp)
     87c:	afb40030 	sw	s4,48(sp)
     880:	afb3002c 	sw	s3,44(sp)
     884:	afb20028 	sw	s2,40(sp)
     888:	afb10024 	sw	s1,36(sp)
     88c:	afb00020 	sw	s0,32(sp)
     890:	afbc0010 	sw	gp,16(sp)
     894:	00a08021 	move	s0,a1
     898:	8ca50000 	lw	a1,0(a1)
     89c:	0080b021 	move	s6,a0
     8a0:	10a00051 	beqz	a1,9e8 <classify_object_over_fdes+0x190>
     8a4:	0000a821 	move	s5,zero
     8a8:	0000a021 	move	s4,zero
     8ac:	0000a821 	move	s5,zero
     8b0:	00009821 	move	s3,zero
     8b4:	0000b821 	move	s7,zero
     8b8:	1000000c 	b	8ec <classify_object_over_fdes+0x94>
     8bc:	27be0018 	addiu	s8,sp,24
     8c0:	8ec20000 	lw	v0,0(s6)
     8c4:	0062102b 	sltu	v0,v1,v0
     8c8:	10400041 	beqz	v0,9d0 <classify_object_over_fdes+0x178>
     8cc:	26b50001 	addiu	s5,s5,1
     8d0:	8e050000 	lw	a1,0(s0)
     8d4:	aec30000 	sw	v1,0(s6)
     8d8:	24a20004 	addiu	v0,a1,4
     8dc:	02028021 	addu	s0,s0,v0
     8e0:	8e050000 	lw	a1,0(s0)
     8e4:	10a00041 	beqz	a1,9ec <classify_object_over_fdes+0x194>
     8e8:	8fbf0044 	lw	ra,68(sp)
     8ec:	8e040004 	lw	a0,4(s0)
     8f0:	1080fffa 	beqz	a0,8dc <classify_object_over_fdes+0x84>
     8f4:	24a20004 	addiu	v0,a1,4
     8f8:	26020004 	addiu	v0,s0,4
     8fc:	00449023 	subu	s2,v0,a0
     900:	1292001a 	beq	s4,s2,96c <classify_object_over_fdes+0x114>
     904:	327100ff 	andi	s1,s3,0xff
     908:	8f990000 	lw	t9,0(gp)
     90c:	273906ec 	addiu	t9,t9,1772
     910:	0320f809 	jalr	t9
     914:	02402021 	move	a0,s2
     918:	8fbc0010 	lw	gp,16(sp)
     91c:	305100ff 	andi	s1,v0,0xff
     920:	02202021 	move	a0,s1
     924:	8f990000 	lw	t9,0(gp)
     928:	02c02821 	move	a1,s6
     92c:	273904c8 	addiu	t9,t9,1224
     930:	0320f809 	jalr	t9
     934:	00409821 	move	s3,v0
     938:	8ec30010 	lw	v1,16(s6)
     93c:	0040b821 	move	s7,v0
     940:	240400ff 	li	a0,255
     944:	7c6238c0 	ext	v0,v1,0x3,0x8
     948:	10440034 	beq	v0,a0,a1c <classify_object_over_fdes+0x1c4>
     94c:	8fbc0010 	lw	gp,16(sp)
     950:	12620006 	beq	s3,v0,96c <classify_object_over_fdes+0x114>
     954:	0240a021 	move	s4,s2
     958:	00601021 	move	v0,v1
     95c:	24190001 	li	t9,1
     960:	7f221084 	ins	v0,t9,0x2,0x1
     964:	aec20010 	sw	v0,16(s6)
     968:	0240a021 	move	s4,s2
     96c:	8f990000 	lw	t9,0(gp)
     970:	02202021 	move	a0,s1
     974:	02e02821 	move	a1,s7
     978:	26060008 	addiu	a2,s0,8
     97c:	27390568 	addiu	t9,t9,1384
     980:	0320f809 	jalr	t9
     984:	03c03821 	move	a3,s8
     988:	8fbc0010 	lw	gp,16(sp)
     98c:	8f990000 	lw	t9,0(gp)
     990:	2739042c 	addiu	t9,t9,1068
     994:	0320f809 	jalr	t9
     998:	02202021 	move	a0,s1
     99c:	00401821 	move	v1,v0
     9a0:	2c420004 	sltiu	v0,v0,4
     9a4:	8fbc0010 	lw	gp,16(sp)
     9a8:	10400005 	beqz	v0,9c0 <classify_object_over_fdes+0x168>
     9ac:	2404ffff 	li	a0,-1
     9b0:	000310c0 	sll	v0,v1,0x3
     9b4:	24030001 	li	v1,1
     9b8:	00431004 	sllv	v0,v1,v0
     9bc:	2444ffff 	addiu	a0,v0,-1
     9c0:	8fa30018 	lw	v1,24(sp)
     9c4:	00831024 	and	v0,a0,v1
     9c8:	1440ffbd 	bnez	v0,8c0 <classify_object_over_fdes+0x68>
     9cc:	00000000 	nop
     9d0:	8e050000 	lw	a1,0(s0)
     9d4:	24a20004 	addiu	v0,a1,4
     9d8:	02028021 	addu	s0,s0,v0
     9dc:	8e050000 	lw	a1,0(s0)
     9e0:	14a0ffc2 	bnez	a1,8ec <classify_object_over_fdes+0x94>
     9e4:	00000000 	nop
     9e8:	8fbf0044 	lw	ra,68(sp)
     9ec:	02a01021 	move	v0,s5
     9f0:	8fbe0040 	lw	s8,64(sp)
     9f4:	8fb7003c 	lw	s7,60(sp)
     9f8:	8fb60038 	lw	s6,56(sp)
     9fc:	8fb50034 	lw	s5,52(sp)
     a00:	8fb40030 	lw	s4,48(sp)
     a04:	8fb3002c 	lw	s3,44(sp)
     a08:	8fb20028 	lw	s2,40(sp)
     a0c:	8fb10024 	lw	s1,36(sp)
     a10:	8fb00020 	lw	s0,32(sp)
     a14:	03e00008 	jr	ra
     a18:	27bd0048 	addiu	sp,sp,72
     a1c:	00601021 	move	v0,v1
     a20:	7e2250c4 	ins	v0,s1,0x3,0x8
     a24:	aec20010 	sw	v0,16(s6)
     a28:	1000ffd0 	b	96c <classify_object_over_fdes+0x114>
     a2c:	0240a021 	move	s4,s2

00000a30 <add_fdes>:
     a30:	3c1c0000 	lui	gp,0x0
     a34:	279c0000 	addiu	gp,gp,0
     a38:	0399e021 	addu	gp,gp,t9
     a3c:	27bdffb0 	addiu	sp,sp,-80
     a40:	afbf004c 	sw	ra,76(sp)
     a44:	afbe0048 	sw	s8,72(sp)
     a48:	afb70044 	sw	s7,68(sp)
     a4c:	afb60040 	sw	s6,64(sp)
     a50:	afb5003c 	sw	s5,60(sp)
     a54:	afb40038 	sw	s4,56(sp)
     a58:	afb30034 	sw	s3,52(sp)
     a5c:	afb20030 	sw	s2,48(sp)
     a60:	afb1002c 	sw	s1,44(sp)
     a64:	afb00028 	sw	s0,40(sp)
     a68:	afbc0010 	sw	gp,16(sp)
     a6c:	8c820010 	lw	v0,16(a0)
     a70:	00809821 	move	s3,a0
     a74:	00c08821 	move	s1,a2
     a78:	7c5238c0 	ext	s2,v0,0x3,0x8
     a7c:	8f820000 	lw	v0,0(gp)
     a80:	00a0b821 	move	s7,a1
     a84:	02402021 	move	a0,s2
     a88:	245604c8 	addiu	s6,v0,1224
     a8c:	02c0c821 	move	t9,s6
     a90:	0320f809 	jalr	t9
     a94:	02602821 	move	a1,s3
     a98:	8e250000 	lw	a1,0(s1)
     a9c:	8fbc0010 	lw	gp,16(sp)
     aa0:	10a0002f 	beqz	a1,b60 <add_fdes+0x130>
     aa4:	0040a821 	move	s5,v0
     aa8:	8f820000 	lw	v0,0(gp)
     aac:	0000a021 	move	s4,zero
     ab0:	245e06ec 	addiu	s8,v0,1772
     ab4:	27a20018 	addiu	v0,sp,24
     ab8:	afa20020 	sw	v0,32(sp)
     abc:	8e240004 	lw	a0,4(s1)
     ac0:	10800023 	beqz	a0,b50 <add_fdes+0x120>
     ac4:	24a20004 	addiu	v0,a1,4
     ac8:	8e620010 	lw	v0,16(s3)
     acc:	7c420080 	ext	v0,v0,0x2,0x1
     ad0:	1040000e 	beqz	v0,b0c <add_fdes+0xdc>
     ad4:	26220004 	addiu	v0,s1,4
     ad8:	00448023 	subu	s0,v0,a0
     adc:	1290000b 	beq	s4,s0,b0c <add_fdes+0xdc>
     ae0:	03c0c821 	move	t9,s8
     ae4:	0320f809 	jalr	t9
     ae8:	02002021 	move	a0,s0
     aec:	304400ff 	andi	a0,v0,0xff
     af0:	02602821 	move	a1,s3
     af4:	02c0c821 	move	t9,s6
     af8:	0320f809 	jalr	t9
     afc:	00409021 	move	s2,v0
     b00:	8fbc0010 	lw	gp,16(sp)
     b04:	0040a821 	move	s5,v0
     b08:	0200a021 	move	s4,s0
     b0c:	16400020 	bnez	s2,b90 <add_fdes+0x160>
     b10:	8f990000 	lw	t9,0(gp)
     b14:	8e220008 	lw	v0,8(s1)
     b18:	10400036 	beqz	v0,bf4 <add_fdes+0x1c4>
     b1c:	00000000 	nop
     b20:	8ee40000 	lw	a0,0(s7)
     b24:	10800033 	beqz	a0,bf4 <add_fdes+0x1c4>
     b28:	00000000 	nop
     b2c:	8c820004 	lw	v0,4(a0)
     b30:	24430001 	addiu	v1,v0,1
     b34:	ac830004 	sw	v1,4(a0)
     b38:	24420002 	addiu	v0,v0,2
     b3c:	00021080 	sll	v0,v0,0x2
     b40:	8e250000 	lw	a1,0(s1)
     b44:	00821021 	addu	v0,a0,v0
     b48:	ac510000 	sw	s1,0(v0)
     b4c:	24a20004 	addiu	v0,a1,4
     b50:	02228821 	addu	s1,s1,v0
     b54:	8e250000 	lw	a1,0(s1)
     b58:	14a0ffd8 	bnez	a1,abc <add_fdes+0x8c>
     b5c:	00000000 	nop
     b60:	8fbf004c 	lw	ra,76(sp)
     b64:	8fbe0048 	lw	s8,72(sp)
     b68:	8fb70044 	lw	s7,68(sp)
     b6c:	8fb60040 	lw	s6,64(sp)
     b70:	8fb5003c 	lw	s5,60(sp)
     b74:	8fb40038 	lw	s4,56(sp)
     b78:	8fb30034 	lw	s3,52(sp)
     b7c:	8fb20030 	lw	s2,48(sp)
     b80:	8fb1002c 	lw	s1,44(sp)
     b84:	8fb00028 	lw	s0,40(sp)
     b88:	03e00008 	jr	ra
     b8c:	27bd0050 	addiu	sp,sp,80
     b90:	8fa70020 	lw	a3,32(sp)
     b94:	325000ff 	andi	s0,s2,0xff
     b98:	02002021 	move	a0,s0
     b9c:	02a02821 	move	a1,s5
     ba0:	27390568 	addiu	t9,t9,1384
     ba4:	0320f809 	jalr	t9
     ba8:	26260008 	addiu	a2,s1,8
     bac:	8fbc0010 	lw	gp,16(sp)
     bb0:	8f990000 	lw	t9,0(gp)
     bb4:	2739042c 	addiu	t9,t9,1068
     bb8:	0320f809 	jalr	t9
     bbc:	02002021 	move	a0,s0
     bc0:	00401821 	move	v1,v0
     bc4:	2c420004 	sltiu	v0,v0,4
     bc8:	8fbc0010 	lw	gp,16(sp)
     bcc:	10400005 	beqz	v0,be4 <add_fdes+0x1b4>
     bd0:	2404ffff 	li	a0,-1
     bd4:	000310c0 	sll	v0,v1,0x3
     bd8:	24030001 	li	v1,1
     bdc:	00431004 	sllv	v0,v1,v0
     be0:	2444ffff 	addiu	a0,v0,-1
     be4:	8fa20018 	lw	v0,24(sp)
     be8:	00821024 	and	v0,a0,v0
     bec:	1440ffcc 	bnez	v0,b20 <add_fdes+0xf0>
     bf0:	00000000 	nop
     bf4:	1000ffd5 	b	b4c <add_fdes+0x11c>
     bf8:	8e250000 	lw	a1,0(s1)

00000bfc <fde_single_encoding_compare>:
     bfc:	3c1c0000 	lui	gp,0x0
     c00:	279c0000 	addiu	gp,gp,0
     c04:	0399e021 	addu	gp,gp,t9
     c08:	27bdffc8 	addiu	sp,sp,-56
     c0c:	afbf0034 	sw	ra,52(sp)
     c10:	afb30030 	sw	s3,48(sp)
     c14:	afb2002c 	sw	s2,44(sp)
     c18:	afb10028 	sw	s1,40(sp)
     c1c:	afb00024 	sw	s0,36(sp)
     c20:	afbc0010 	sw	gp,16(sp)
     c24:	00808021 	move	s0,a0
     c28:	8f990000 	lw	t9,0(gp)
     c2c:	8c840010 	lw	a0,16(a0)
     c30:	00a09021 	move	s2,a1
     c34:	273904c8 	addiu	t9,t9,1224
     c38:	7c8438c0 	ext	a0,a0,0x3,0x8
     c3c:	02002821 	move	a1,s0
     c40:	0320f809 	jalr	t9
     c44:	00c09821 	move	s3,a2
     c48:	8fbc0010 	lw	gp,16(sp)
     c4c:	00408821 	move	s1,v0
     c50:	8e040010 	lw	a0,16(s0)
     c54:	8f820000 	lw	v0,0(gp)
     c58:	26460008 	addiu	a2,s2,8
     c5c:	7c8438c0 	ext	a0,a0,0x3,0x8
     c60:	24520568 	addiu	s2,v0,1384
     c64:	02202821 	move	a1,s1
     c68:	0240c821 	move	t9,s2
     c6c:	0320f809 	jalr	t9
     c70:	27a70018 	addiu	a3,sp,24
     c74:	8e040010 	lw	a0,16(s0)
     c78:	02202821 	move	a1,s1
     c7c:	26660008 	addiu	a2,s3,8
     c80:	7c8438c0 	ext	a0,a0,0x3,0x8
     c84:	0240c821 	move	t9,s2
     c88:	0320f809 	jalr	t9
     c8c:	27a7001c 	addiu	a3,sp,28
     c90:	8fa50018 	lw	a1,24(sp)
     c94:	8fa4001c 	lw	a0,28(sp)
     c98:	8fbc0010 	lw	gp,16(sp)
     c9c:	0085102b 	sltu	v0,a0,a1
     ca0:	10400009 	beqz	v0,cc8 <fde_single_encoding_compare+0xcc>
     ca4:	24030001 	li	v1,1
     ca8:	8fbf0034 	lw	ra,52(sp)
     cac:	00601021 	move	v0,v1
     cb0:	8fb30030 	lw	s3,48(sp)
     cb4:	8fb2002c 	lw	s2,44(sp)
     cb8:	8fb10028 	lw	s1,40(sp)
     cbc:	8fb00024 	lw	s0,36(sp)
     cc0:	03e00008 	jr	ra
     cc4:	27bd0038 	addiu	sp,sp,56
     cc8:	00a4182b 	sltu	v1,a1,a0
     ccc:	2402ffff 	li	v0,-1
     cd0:	0003100a 	movz	v0,zero,v1
     cd4:	1000fff4 	b	ca8 <fde_single_encoding_compare+0xac>
     cd8:	00401821 	move	v1,v0

00000cdc <fde_mixed_encoding_compare>:
     cdc:	3c1c0000 	lui	gp,0x0
     ce0:	279c0000 	addiu	gp,gp,0
     ce4:	0399e021 	addu	gp,gp,t9
     ce8:	27bdffc0 	addiu	sp,sp,-64
     cec:	afbf003c 	sw	ra,60(sp)
     cf0:	afb50038 	sw	s5,56(sp)
     cf4:	afb40034 	sw	s4,52(sp)
     cf8:	afb30030 	sw	s3,48(sp)
     cfc:	afb2002c 	sw	s2,44(sp)
     d00:	afb10028 	sw	s1,40(sp)
     d04:	afb00024 	sw	s0,36(sp)
     d08:	afbc0010 	sw	gp,16(sp)
     d0c:	8ca30004 	lw	v1,4(a1)
     d10:	24a20004 	addiu	v0,a1,4
     d14:	00809821 	move	s3,a0
     d18:	00432023 	subu	a0,v0,v1
     d1c:	8f820000 	lw	v0,0(gp)
     d20:	00c09021 	move	s2,a2
     d24:	245506ec 	addiu	s5,v0,1772
     d28:	02a0c821 	move	t9,s5
     d2c:	0320f809 	jalr	t9
     d30:	00a08021 	move	s0,a1
     d34:	8fbc0010 	lw	gp,16(sp)
     d38:	305100ff 	andi	s1,v0,0xff
     d3c:	02202021 	move	a0,s1
     d40:	8f820000 	lw	v0,0(gp)
     d44:	245404c8 	addiu	s4,v0,1224
     d48:	0280c821 	move	t9,s4
     d4c:	0320f809 	jalr	t9
     d50:	02602821 	move	a1,s3
     d54:	8fbc0010 	lw	gp,16(sp)
     d58:	00402821 	move	a1,v0
     d5c:	02202021 	move	a0,s1
     d60:	8f820000 	lw	v0,0(gp)
     d64:	26060008 	addiu	a2,s0,8
     d68:	24510568 	addiu	s1,v0,1384
     d6c:	0220c821 	move	t9,s1
     d70:	0320f809 	jalr	t9
     d74:	27a70018 	addiu	a3,sp,24
     d78:	8e420004 	lw	v0,4(s2)
     d7c:	26440004 	addiu	a0,s2,4
     d80:	02a0c821 	move	t9,s5
     d84:	0320f809 	jalr	t9
     d88:	00822023 	subu	a0,a0,v0
     d8c:	305000ff 	andi	s0,v0,0xff
     d90:	02602821 	move	a1,s3
     d94:	0280c821 	move	t9,s4
     d98:	0320f809 	jalr	t9
     d9c:	02002021 	move	a0,s0
     da0:	02002021 	move	a0,s0
     da4:	00402821 	move	a1,v0
     da8:	26460008 	addiu	a2,s2,8
     dac:	0220c821 	move	t9,s1
     db0:	0320f809 	jalr	t9
     db4:	27a7001c 	addiu	a3,sp,28
     db8:	8fa50018 	lw	a1,24(sp)
     dbc:	8fa4001c 	lw	a0,28(sp)
     dc0:	8fbc0010 	lw	gp,16(sp)
     dc4:	0085102b 	sltu	v0,a0,a1
     dc8:	1040000b 	beqz	v0,df8 <fde_mixed_encoding_compare+0x11c>
     dcc:	24030001 	li	v1,1
     dd0:	8fbf003c 	lw	ra,60(sp)
     dd4:	00601021 	move	v0,v1
     dd8:	8fb50038 	lw	s5,56(sp)
     ddc:	8fb40034 	lw	s4,52(sp)
     de0:	8fb30030 	lw	s3,48(sp)
     de4:	8fb2002c 	lw	s2,44(sp)
     de8:	8fb10028 	lw	s1,40(sp)
     dec:	8fb00024 	lw	s0,36(sp)
     df0:	03e00008 	jr	ra
     df4:	27bd0040 	addiu	sp,sp,64
     df8:	00a4182b 	sltu	v1,a1,a0
     dfc:	2402ffff 	li	v0,-1
     e00:	0003100a 	movz	v0,zero,v1
     e04:	1000fff2 	b	dd0 <fde_mixed_encoding_compare+0xf4>
     e08:	00401821 	move	v1,v0

00000e0c <linear_search_fdes>:
     e0c:	3c1c0000 	lui	gp,0x0
     e10:	279c0000 	addiu	gp,gp,0
     e14:	0399e021 	addu	gp,gp,t9
     e18:	27bdffb0 	addiu	sp,sp,-80
     e1c:	afbf004c 	sw	ra,76(sp)
     e20:	afbe0048 	sw	s8,72(sp)
     e24:	afb70044 	sw	s7,68(sp)
     e28:	afb60040 	sw	s6,64(sp)
     e2c:	afb5003c 	sw	s5,60(sp)
     e30:	afb40038 	sw	s4,56(sp)
     e34:	afb30034 	sw	s3,52(sp)
     e38:	afb20030 	sw	s2,48(sp)
     e3c:	afb1002c 	sw	s1,44(sp)
     e40:	afb00028 	sw	s0,40(sp)
     e44:	afbc0010 	sw	gp,16(sp)
     e48:	8c830010 	lw	v1,16(a0)
     e4c:	8f820000 	lw	v0,0(gp)
     e50:	00809821 	move	s3,a0
     e54:	7c7238c0 	ext	s2,v1,0x3,0x8
     e58:	245e04c8 	addiu	s8,v0,1224
     e5c:	00a08821 	move	s1,a1
     e60:	02402021 	move	a0,s2
     e64:	02602821 	move	a1,s3
     e68:	03c0c821 	move	t9,s8
     e6c:	0320f809 	jalr	t9
     e70:	00c0b821 	move	s7,a2
     e74:	8e250000 	lw	a1,0(s1)
     e78:	8fbc0010 	lw	gp,16(sp)
     e7c:	10a00030 	beqz	a1,f40 <linear_search_fdes+0x134>
     e80:	0040a821 	move	s5,v0
     e84:	8f820000 	lw	v0,0(gp)
     e88:	27a3001c 	addiu	v1,sp,28
     e8c:	0000a021 	move	s4,zero
     e90:	24560568 	addiu	s6,v0,1384
     e94:	27a20018 	addiu	v0,sp,24
     e98:	afa20020 	sw	v0,32(sp)
     e9c:	afa30024 	sw	v1,36(sp)
     ea0:	8e240004 	lw	a0,4(s1)
     ea4:	10800022 	beqz	a0,f30 <linear_search_fdes+0x124>
     ea8:	24a20004 	addiu	v0,a1,4
     eac:	8e620010 	lw	v0,16(s3)
     eb0:	7c420080 	ext	v0,v0,0x2,0x1
     eb4:	1040000f 	beqz	v0,ef4 <linear_search_fdes+0xe8>
     eb8:	26220004 	addiu	v0,s1,4
     ebc:	00448023 	subu	s0,v0,a0
     ec0:	1290000c 	beq	s4,s0,ef4 <linear_search_fdes+0xe8>
     ec4:	8f990000 	lw	t9,0(gp)
     ec8:	02002021 	move	a0,s0
     ecc:	273906ec 	addiu	t9,t9,1772
     ed0:	0320f809 	jalr	t9
     ed4:	0200a021 	move	s4,s0
     ed8:	304400ff 	andi	a0,v0,0xff
     edc:	02602821 	move	a1,s3
     ee0:	03c0c821 	move	t9,s8
     ee4:	0320f809 	jalr	t9
     ee8:	00409021 	move	s2,v0
     eec:	8fbc0010 	lw	gp,16(sp)
     ef0:	0040a821 	move	s5,v0
     ef4:	16400020 	bnez	s2,f78 <linear_search_fdes+0x16c>
     ef8:	8fa70020 	lw	a3,32(sp)
     efc:	8e220008 	lw	v0,8(s1)
     f00:	afa20018 	sw	v0,24(sp)
     f04:	8e23000c 	lw	v1,12(s1)
     f08:	00402021 	move	a0,v0
     f0c:	10400006 	beqz	v0,f28 <linear_search_fdes+0x11c>
     f10:	afa3001c 	sw	v1,28(sp)
     f14:	8fa3001c 	lw	v1,28(sp)
     f18:	02e41023 	subu	v0,s7,a0
     f1c:	0043102b 	sltu	v0,v0,v1
     f20:	14400009 	bnez	v0,f48 <linear_search_fdes+0x13c>
     f24:	8fbf004c 	lw	ra,76(sp)
     f28:	8e250000 	lw	a1,0(s1)
     f2c:	24a20004 	addiu	v0,a1,4
     f30:	02228821 	addu	s1,s1,v0
     f34:	8e250000 	lw	a1,0(s1)
     f38:	14a0ffd9 	bnez	a1,ea0 <linear_search_fdes+0x94>
     f3c:	00000000 	nop
     f40:	00008821 	move	s1,zero
     f44:	8fbf004c 	lw	ra,76(sp)
     f48:	02201021 	move	v0,s1
     f4c:	8fbe0048 	lw	s8,72(sp)
     f50:	8fb70044 	lw	s7,68(sp)
     f54:	8fb60040 	lw	s6,64(sp)
     f58:	8fb5003c 	lw	s5,60(sp)
     f5c:	8fb40038 	lw	s4,56(sp)
     f60:	8fb30034 	lw	s3,52(sp)
     f64:	8fb20030 	lw	s2,48(sp)
     f68:	8fb1002c 	lw	s1,44(sp)
     f6c:	8fb00028 	lw	s0,40(sp)
     f70:	03e00008 	jr	ra
     f74:	27bd0050 	addiu	sp,sp,80
     f78:	325000ff 	andi	s0,s2,0xff
     f7c:	02002021 	move	a0,s0
     f80:	02a02821 	move	a1,s5
     f84:	02c0c821 	move	t9,s6
     f88:	0320f809 	jalr	t9
     f8c:	26260008 	addiu	a2,s1,8
     f90:	8fa70024 	lw	a3,36(sp)
     f94:	00002821 	move	a1,zero
     f98:	00403021 	move	a2,v0
     f9c:	02c0c821 	move	t9,s6
     fa0:	0320f809 	jalr	t9
     fa4:	3204000f 	andi	a0,s0,0xf
     fa8:	8fbc0010 	lw	gp,16(sp)
     fac:	8f990000 	lw	t9,0(gp)
     fb0:	2739042c 	addiu	t9,t9,1068
     fb4:	0320f809 	jalr	t9
     fb8:	02002021 	move	a0,s0
     fbc:	00401821 	move	v1,v0
     fc0:	2c420004 	sltiu	v0,v0,4
     fc4:	8fbc0010 	lw	gp,16(sp)
     fc8:	10400005 	beqz	v0,fe0 <linear_search_fdes+0x1d4>
     fcc:	2405ffff 	li	a1,-1
     fd0:	000310c0 	sll	v0,v1,0x3
     fd4:	24030001 	li	v1,1
     fd8:	00431004 	sllv	v0,v1,v0
     fdc:	2445ffff 	addiu	a1,v0,-1
     fe0:	8fa40018 	lw	a0,24(sp)
     fe4:	00a41024 	and	v0,a1,a0
     fe8:	1440ffcb 	bnez	v0,f18 <linear_search_fdes+0x10c>
     fec:	8fa3001c 	lw	v1,28(sp)
     ff0:	1000ffce 	b	f2c <linear_search_fdes+0x120>
     ff4:	8e250000 	lw	a1,0(s1)

00000ff8 <base_from_cb_data>:
     ff8:	3c1c0000 	lui	gp,0x0
     ffc:	279c0000 	addiu	gp,gp,0
    1000:	0399e021 	addu	gp,gp,t9
    1004:	27bdffe0 	addiu	sp,sp,-32
    1008:	afbf001c 	sw	ra,28(sp)
    100c:	afbc0010 	sw	gp,16(sp)
    1010:	308400ff 	andi	a0,a0,0xff
    1014:	240200ff 	li	v0,255
    1018:	1082000f 	beq	a0,v0,1058 <base_from_cb_data+0x60>
    101c:	24020020 	li	v0,32
    1020:	30840070 	andi	a0,a0,0x70
    1024:	10820018 	beq	a0,v0,1088 <base_from_cb_data+0x90>
    1028:	28820021 	slti	v0,a0,33
    102c:	14400008 	bnez	v0,1050 <base_from_cb_data+0x58>
    1030:	24020030 	li	v0,48
    1034:	10820010 	beq	a0,v0,1078 <base_from_cb_data+0x80>
    1038:	24020050 	li	v0,80
    103c:	10820007 	beq	a0,v0,105c <base_from_cb_data+0x64>
    1040:	8fbf001c 	lw	ra,28(sp)
    1044:	8f990000 	lw	t9,0(gp)
    1048:	0320f809 	jalr	t9
    104c:	00000000 	nop
    1050:	14800005 	bnez	a0,1068 <base_from_cb_data+0x70>
    1054:	24020010 	li	v0,16
    1058:	8fbf001c 	lw	ra,28(sp)
    105c:	00001021 	move	v0,zero
    1060:	03e00008 	jr	ra
    1064:	27bd0020 	addiu	sp,sp,32
    1068:	1482fff7 	bne	a0,v0,1048 <base_from_cb_data+0x50>
    106c:	8f990000 	lw	t9,0(gp)
    1070:	1000fffa 	b	105c <base_from_cb_data+0x64>
    1074:	8fbf001c 	lw	ra,28(sp)
    1078:	8fbf001c 	lw	ra,28(sp)
    107c:	8ca20008 	lw	v0,8(a1)
    1080:	03e00008 	jr	ra
    1084:	27bd0020 	addiu	sp,sp,32
    1088:	8fbf001c 	lw	ra,28(sp)
    108c:	8ca20004 	lw	v0,4(a1)
    1090:	03e00008 	jr	ra
    1094:	27bd0020 	addiu	sp,sp,32

00001098 <_Unwind_IteratePhdrCallback>:
    1098:	3c1c0000 	lui	gp,0x0
    109c:	279c0000 	addiu	gp,gp,0
    10a0:	0399e021 	addu	gp,gp,t9
    10a4:	27bdffa0 	addiu	sp,sp,-96
    10a8:	afbf005c 	sw	ra,92(sp)
    10ac:	afb50058 	sw	s5,88(sp)
    10b0:	afb40054 	sw	s4,84(sp)
    10b4:	afb30050 	sw	s3,80(sp)
    10b8:	afb2004c 	sw	s2,76(sp)
    10bc:	afb10048 	sw	s1,72(sp)
    10c0:	afb00044 	sw	s0,68(sp)
    10c4:	afbc0010 	sw	gp,16(sp)
    10c8:	8cc20014 	lw	v0,20(a2)
    10cc:	00c08821 	move	s1,a2
    10d0:	00a09821 	move	s3,a1
    10d4:	8c8b0008 	lw	t3,8(a0)
    10d8:	10400070 	beqz	v0,129c <_Unwind_IteratePhdrCallback+0x204>
    10dc:	8c860000 	lw	a2,0(a0)
    10e0:	2ca20020 	sltiu	v0,a1,32
    10e4:	1440006e 	bnez	v0,12a0 <_Unwind_IteratePhdrCallback+0x208>
    10e8:	2e62000e 	sltiu	v0,s3,14
    10ec:	8f880000 	lw	t0,0(gp)
    10f0:	8c890010 	lw	t1,16(a0)
    10f4:	8d020000 	lw	v0,0(t0)
    10f8:	1049007d 	beq	v0,t1,12f0 <_Unwind_IteratePhdrCallback+0x258>
    10fc:	8c8a0014 	lw	t2,20(a0)
    1100:	8f870000 	lw	a3,0(gp)
    1104:	8c820018 	lw	v0,24(a0)
    1108:	8c83001c 	lw	v1,28(a0)
    110c:	ad0a0004 	sw	t2,4(t0)
    1110:	ace20020 	sw	v0,32(a3)
    1114:	ace30024 	sw	v1,36(a3)
    1118:	8f820000 	lw	v0,0(gp)
    111c:	8f830000 	lw	v1,0(gp)
    1120:	ad090000 	sw	t1,0(t0)
    1124:	24420048 	addiu	v0,v0,72
    1128:	24630108 	addiu	v1,v1,264
    112c:	ac40ffe8 	sw	zero,-24(v0)
    1130:	ac40ffec 	sw	zero,-20(v0)
    1134:	ac42fffc 	sw	v0,-4(v0)
    1138:	24420018 	addiu	v0,v0,24
    113c:	1462fffb 	bne	v1,v0,112c <_Unwind_IteratePhdrCallback+0x94>
    1140:	8f8a0000 	lw	t2,0(gp)
    1144:	8f820000 	lw	v0,0(gp)
    1148:	ae200014 	sw	zero,20(s1)
    114c:	24420030 	addiu	v0,v0,48
    1150:	ad4200f0 	sw	v0,240(t2)
    1154:	0000c821 	move	t9,zero
    1158:	ac4000bc 	sw	zero,188(v0)
    115c:	0000c021 	move	t8,zero
    1160:	9482000c 	lhu	v0,12(a0)
    1164:	10400057 	beqz	v0,12c4 <_Unwind_IteratePhdrCallback+0x22c>
    1168:	2448ffff 	addiu	t0,v0,-1
    116c:	3c026474 	lui	v0,0x6474
    1170:	344fe550 	ori	t7,v0,0xe550
    1174:	8d620000 	lw	v0,0(t3)
    1178:	240d0001 	li	t5,1
    117c:	00007021 	move	t6,zero
    1180:	00009021 	move	s2,zero
    1184:	00002821 	move	a1,zero
    1188:	0000a021 	move	s4,zero
    118c:	00003821 	move	a3,zero
    1190:	24100002 	li	s0,2
    1194:	104d000d 	beq	v0,t5,11cc <_Unwind_IteratePhdrCallback+0x134>
    1198:	240cffff 	li	t4,-1
    119c:	104f0047 	beq	v0,t7,12bc <_Unwind_IteratePhdrCallback+0x224>
    11a0:	00e04821 	move	t1,a3
    11a4:	10500043 	beq	v0,s0,12b4 <_Unwind_IteratePhdrCallback+0x21c>
    11a8:	00000000 	nop
    11ac:	00e04821 	move	t1,a3
    11b0:	2508ffff 	addiu	t0,t0,-1
    11b4:	110c0014 	beq	t0,t4,1208 <_Unwind_IteratePhdrCallback+0x170>
    11b8:	00000000 	nop
    11bc:	256b0020 	addiu	t3,t3,32
    11c0:	8d620000 	lw	v0,0(t3)
    11c4:	144dfff5 	bne	v0,t5,119c <_Unwind_IteratePhdrCallback+0x104>
    11c8:	01203821 	move	a3,t1
    11cc:	8d630008 	lw	v1,8(t3)
    11d0:	8e2a0000 	lw	t2,0(s1)
    11d4:	00c32021 	addu	a0,a2,v1
    11d8:	0144102b 	sltu	v0,t2,a0
    11dc:	1440fff4 	bnez	v0,11b0 <_Unwind_IteratePhdrCallback+0x118>
    11e0:	00e04821 	move	t1,a3
    11e4:	8d620014 	lw	v0,20(t3)
    11e8:	00824821 	addu	t1,a0,v0
    11ec:	0149182b 	sltu	v1,t2,t1
    11f0:	1060ffee 	beqz	v1,11ac <_Unwind_IteratePhdrCallback+0x114>
    11f4:	00000000 	nop
    11f8:	2508ffff 	addiu	t0,t0,-1
    11fc:	0080a021 	move	s4,a0
    1200:	150cffee 	bne	t0,t4,11bc <_Unwind_IteratePhdrCallback+0x124>
    1204:	24050001 	li	a1,1
    1208:	10a0002e 	beqz	a1,12c4 <_Unwind_IteratePhdrCallback+0x22c>
    120c:	2e620020 	sltiu	v0,s3,32
    1210:	1440000f 	bnez	v0,1250 <_Unwind_IteratePhdrCallback+0x1b8>
    1214:	00000000 	nop
    1218:	13000007 	beqz	t8,1238 <_Unwind_IteratePhdrCallback+0x1a0>
    121c:	8f8a0000 	lw	t2,0(gp)
    1220:	13200005 	beqz	t9,1238 <_Unwind_IteratePhdrCallback+0x1a0>
    1224:	8d4300f0 	lw	v1,240(t2)
    1228:	8f020014 	lw	v0,20(t8)
    122c:	af220014 	sw	v0,20(t9)
    1230:	af030014 	sw	v1,20(t8)
    1234:	ad5800f0 	sw	t8,240(t2)
    1238:	8d4200f0 	lw	v0,240(t2)
    123c:	ac490004 	sw	t1,4(v0)
    1240:	ac520010 	sw	s2,16(v0)
    1244:	ac540000 	sw	s4,0(v0)
    1248:	ac460008 	sw	a2,8(v0)
    124c:	ac4e000c 	sw	t6,12(v0)
    1250:	11c0001d 	beqz	t6,12c8 <_Unwind_IteratePhdrCallback+0x230>
    1254:	8fbf005c 	lw	ra,92(sp)
    1258:	8dc20008 	lw	v0,8(t6)
    125c:	00c29021 	addu	s2,a2,v0
    1260:	92430000 	lbu	v1,0(s2)
    1264:	24020001 	li	v0,1
    1268:	10620044 	beq	v1,v0,137c <_Unwind_IteratePhdrCallback+0x2e4>
    126c:	8f820000 	lw	v0,0(gp)
    1270:	24030001 	li	v1,1
    1274:	8fbf005c 	lw	ra,92(sp)
    1278:	00601021 	move	v0,v1
    127c:	8fb50058 	lw	s5,88(sp)
    1280:	8fb40054 	lw	s4,84(sp)
    1284:	8fb30050 	lw	s3,80(sp)
    1288:	8fb2004c 	lw	s2,76(sp)
    128c:	8fb10048 	lw	s1,72(sp)
    1290:	8fb00044 	lw	s0,68(sp)
    1294:	03e00008 	jr	ra
    1298:	27bd0060 	addiu	sp,sp,96
    129c:	2e62000e 	sltiu	v0,s3,14
    12a0:	1440fff4 	bnez	v0,1274 <_Unwind_IteratePhdrCallback+0x1dc>
    12a4:	2403ffff 	li	v1,-1
    12a8:	0000c821 	move	t9,zero
    12ac:	1000ffac 	b	1160 <_Unwind_IteratePhdrCallback+0xc8>
    12b0:	0000c021 	move	t8,zero
    12b4:	1000ffbe 	b	11b0 <_Unwind_IteratePhdrCallback+0x118>
    12b8:	01609021 	move	s2,t3
    12bc:	1000ffbc 	b	11b0 <_Unwind_IteratePhdrCallback+0x118>
    12c0:	01607021 	move	t6,t3
    12c4:	8fbf005c 	lw	ra,92(sp)
    12c8:	00001821 	move	v1,zero
    12cc:	00601021 	move	v0,v1
    12d0:	8fb50058 	lw	s5,88(sp)
    12d4:	8fb40054 	lw	s4,84(sp)
    12d8:	8fb30050 	lw	s3,80(sp)
    12dc:	8fb2004c 	lw	s2,76(sp)
    12e0:	8fb10048 	lw	s1,72(sp)
    12e4:	8fb00044 	lw	s0,68(sp)
    12e8:	03e00008 	jr	ra
    12ec:	27bd0060 	addiu	sp,sp,96
    12f0:	8d020004 	lw	v0,4(t0)
    12f4:	144aff83 	bne	v0,t2,1104 <_Unwind_IteratePhdrCallback+0x6c>
    12f8:	8f870000 	lw	a3,0(gp)
    12fc:	8c830018 	lw	v1,24(a0)
    1300:	8ce20020 	lw	v0,32(a3)
    1304:	1462ff7f 	bne	v1,v0,1104 <_Unwind_IteratePhdrCallback+0x6c>
    1308:	8ce20024 	lw	v0,36(a3)
    130c:	8c83001c 	lw	v1,28(a0)
    1310:	1462ff7c 	bne	v1,v0,1104 <_Unwind_IteratePhdrCallback+0x6c>
    1314:	00000000 	nop
    1318:	8f8a0000 	lw	t2,0(gp)
    131c:	8d4500f0 	lw	a1,240(t2)
    1320:	10a0ffe1 	beqz	a1,12a8 <_Unwind_IteratePhdrCallback+0x210>
    1324:	00a03821 	move	a3,a1
    1328:	8e290000 	lw	t1,0(s1)
    132c:	1000000d 	b	1364 <_Unwind_IteratePhdrCallback+0x2cc>
    1330:	0000c821 	move	t9,zero
    1334:	8ce30004 	lw	v1,4(a3)
    1338:	0123102b 	sltu	v0,t1,v1
    133c:	14400053 	bnez	v0,148c <_Unwind_IteratePhdrCallback+0x3f4>
    1340:	00000000 	nop
    1344:	00681025 	or	v0,v1,t0
    1348:	1040ff85 	beqz	v0,1160 <_Unwind_IteratePhdrCallback+0xc8>
    134c:	00e0c021 	move	t8,a3
    1350:	8ce20014 	lw	v0,20(a3)
    1354:	1040ff82 	beqz	v0,1160 <_Unwind_IteratePhdrCallback+0xc8>
    1358:	00000000 	nop
    135c:	00e0c821 	move	t9,a3
    1360:	00403821 	move	a3,v0
    1364:	8ce80000 	lw	t0,0(a3)
    1368:	0128102b 	sltu	v0,t1,t0
    136c:	1040fff1 	beqz	v0,1334 <_Unwind_IteratePhdrCallback+0x29c>
    1370:	00000000 	nop
    1374:	1000fff3 	b	1344 <_Unwind_IteratePhdrCallback+0x2ac>
    1378:	8ce30004 	lw	v1,4(a3)
    137c:	92500001 	lbu	s0,1(s2)
    1380:	02202821 	move	a1,s1
    1384:	24540ff8 	addiu	s4,v0,4088
    1388:	0280c821 	move	t9,s4
    138c:	0320f809 	jalr	t9
    1390:	02002021 	move	a0,s0
    1394:	8fbc0010 	lw	gp,16(sp)
    1398:	00402821 	move	a1,v0
    139c:	02002021 	move	a0,s0
    13a0:	8f820000 	lw	v0,0(gp)
    13a4:	26460004 	addiu	a2,s2,4
    13a8:	24550568 	addiu	s5,v0,1384
    13ac:	02a0c821 	move	t9,s5
    13b0:	0320f809 	jalr	t9
    13b4:	27a70018 	addiu	a3,sp,24
    13b8:	92500002 	lbu	s0,2(s2)
    13bc:	00409821 	move	s3,v0
    13c0:	240200ff 	li	v0,255
    13c4:	12020005 	beq	s0,v0,13dc <_Unwind_IteratePhdrCallback+0x344>
    13c8:	8fbc0010 	lw	gp,16(sp)
    13cc:	92430003 	lbu	v1,3(s2)
    13d0:	2402003b 	li	v0,59
    13d4:	10620036 	beq	v1,v0,14b0 <_Unwind_IteratePhdrCallback+0x418>
    13d8:	02002021 	move	a0,s0
    13dc:	8e280004 	lw	t0,4(s1)
    13e0:	8e290008 	lw	t1,8(s1)
    13e4:	8fa70018 	lw	a3,24(sp)
    13e8:	8f990000 	lw	t9,0(gp)
    13ec:	8e260000 	lw	a2,0(s1)
    13f0:	24020001 	li	v0,1
    13f4:	00001821 	move	v1,zero
    13f8:	7c431084 	ins	v1,v0,0x2,0x1
    13fc:	27a40024 	addiu	a0,sp,36
    1400:	00e02821 	move	a1,a3
    1404:	afa80028 	sw	t0,40(sp)
    1408:	afa9002c 	sw	t1,44(sp)
    140c:	afa30034 	sw	v1,52(sp)
    1410:	afa00024 	sw	zero,36(sp)
    1414:	27390e0c 	addiu	t9,t9,3596
    1418:	0320f809 	jalr	t9
    141c:	afa70030 	sw	a3,48(sp)
    1420:	8fbc0010 	lw	gp,16(sp)
    1424:	00402021 	move	a0,v0
    1428:	1040ff91 	beqz	v0,1270 <_Unwind_IteratePhdrCallback+0x1d8>
    142c:	ae220010 	sw	v0,16(s1)
    1430:	8f990000 	lw	t9,0(gp)
    1434:	8c420004 	lw	v0,4(v0)
    1438:	24840004 	addiu	a0,a0,4
    143c:	273906ec 	addiu	t9,t9,1772
    1440:	0320f809 	jalr	t9
    1444:	00822023 	subu	a0,a0,v0
    1448:	305000ff 	andi	s0,v0,0xff
    144c:	02002021 	move	a0,s0
    1450:	0280c821 	move	t9,s4
    1454:	0320f809 	jalr	t9
    1458:	02202821 	move	a1,s1
    145c:	8e260010 	lw	a2,16(s1)
    1460:	02002021 	move	a0,s0
    1464:	00402821 	move	a1,v0
    1468:	24c60008 	addiu	a2,a2,8
    146c:	02a0c821 	move	t9,s5
    1470:	0320f809 	jalr	t9
    1474:	27a70020 	addiu	a3,sp,32
    1478:	8fa20020 	lw	v0,32(sp)
    147c:	8fbc0010 	lw	gp,16(sp)
    1480:	24030001 	li	v1,1
    1484:	1000ff7b 	b	1274 <_Unwind_IteratePhdrCallback+0x1dc>
    1488:	ae22000c 	sw	v0,12(s1)
    148c:	8ce60008 	lw	a2,8(a3)
    1490:	10e5ff6f 	beq	a3,a1,1250 <_Unwind_IteratePhdrCallback+0x1b8>
    1494:	8cee000c 	lw	t6,12(a3)
    1498:	8ce20014 	lw	v0,20(a3)
    149c:	8d4300f0 	lw	v1,240(t2)
    14a0:	af220014 	sw	v0,20(t9)
    14a4:	ace30014 	sw	v1,20(a3)
    14a8:	1000ff69 	b	1250 <_Unwind_IteratePhdrCallback+0x1b8>
    14ac:	ad4700f0 	sw	a3,240(t2)
    14b0:	0280c821 	move	t9,s4
    14b4:	0320f809 	jalr	t9
    14b8:	02202821 	move	a1,s1
    14bc:	27a7001c 	addiu	a3,sp,28
    14c0:	02002021 	move	a0,s0
    14c4:	00402821 	move	a1,v0
    14c8:	02a0c821 	move	t9,s5
    14cc:	0320f809 	jalr	t9
    14d0:	02603021 	move	a2,s3
    14d4:	8fa3001c 	lw	v1,28(sp)
    14d8:	8fbc0010 	lw	gp,16(sp)
    14dc:	1060ff64 	beqz	v1,1270 <_Unwind_IteratePhdrCallback+0x1d8>
    14e0:	00403821 	move	a3,v0
    14e4:	30420003 	andi	v0,v0,0x3
    14e8:	1440ffbc 	bnez	v0,13dc <_Unwind_IteratePhdrCallback+0x344>
    14ec:	00000000 	nop
    14f0:	8ce20000 	lw	v0,0(a3)
    14f4:	8e260000 	lw	a2,0(s1)
    14f8:	02421021 	addu	v0,s2,v0
    14fc:	00c2102b 	sltu	v0,a2,v0
    1500:	1440ff5b 	bnez	v0,1270 <_Unwind_IteratePhdrCallback+0x1d8>
    1504:	2464ffff 	addiu	a0,v1,-1
    1508:	000418c0 	sll	v1,a0,0x3
    150c:	00e39821 	addu	s3,a3,v1
    1510:	8e620000 	lw	v0,0(s3)
    1514:	02421021 	addu	v0,s2,v0
    1518:	00c2102b 	sltu	v0,a2,v0
    151c:	1040001b 	beqz	v0,158c <_Unwind_IteratePhdrCallback+0x4f4>
    1520:	00000000 	nop
    1524:	1080003b 	beqz	a0,1614 <_Unwind_IteratePhdrCallback+0x57c>
    1528:	00804021 	move	t0,a0
    152c:	1000000c 	b	1560 <_Unwind_IteratePhdrCallback+0x4c8>
    1530:	00002821 	move	a1,zero
    1534:	24850001 	addiu	a1,a0,1
    1538:	000510c0 	sll	v0,a1,0x3
    153c:	00e21021 	addu	v0,a3,v0
    1540:	8c430000 	lw	v1,0(v0)
    1544:	02431821 	addu	v1,s2,v1
    1548:	00c3182b 	sltu	v1,a2,v1
    154c:	1460000f 	bnez	v1,158c <_Unwind_IteratePhdrCallback+0x4f4>
    1550:	00000000 	nop
    1554:	00a8102b 	sltu	v0,a1,t0
    1558:	1040002f 	beqz	v0,1618 <_Unwind_IteratePhdrCallback+0x580>
    155c:	8f990000 	lw	t9,0(gp)
    1560:	01051021 	addu	v0,t0,a1
    1564:	00022042 	srl	a0,v0,0x1
    1568:	000418c0 	sll	v1,a0,0x3
    156c:	00e39821 	addu	s3,a3,v1
    1570:	8e620000 	lw	v0,0(s3)
    1574:	02421021 	addu	v0,s2,v0
    1578:	00c2102b 	sltu	v0,a2,v0
    157c:	1040ffed 	beqz	v0,1534 <_Unwind_IteratePhdrCallback+0x49c>
    1580:	00000000 	nop
    1584:	1000fff3 	b	1554 <_Unwind_IteratePhdrCallback+0x4bc>
    1588:	00804021 	move	t0,a0
    158c:	8e620004 	lw	v0,4(s3)
    1590:	8f990000 	lw	t9,0(gp)
    1594:	0242a021 	addu	s4,s2,v0
    1598:	8e830004 	lw	v1,4(s4)
    159c:	26840004 	addiu	a0,s4,4
    15a0:	273906ec 	addiu	t9,t9,1772
    15a4:	0320f809 	jalr	t9
    15a8:	00832023 	subu	a0,a0,v1
    15ac:	8fbc0010 	lw	gp,16(sp)
    15b0:	305000ff 	andi	s0,v0,0xff
    15b4:	8f990000 	lw	t9,0(gp)
    15b8:	2739042c 	addiu	t9,t9,1068
    15bc:	0320f809 	jalr	t9
    15c0:	02002021 	move	a0,s0
    15c4:	24420008 	addiu	v0,v0,8
    15c8:	02823021 	addu	a2,s4,v0
    15cc:	3204000f 	andi	a0,s0,0xf
    15d0:	00002821 	move	a1,zero
    15d4:	02a0c821 	move	t9,s5
    15d8:	0320f809 	jalr	t9
    15dc:	27a70020 	addiu	a3,sp,32
    15e0:	8e660000 	lw	a2,0(s3)
    15e4:	8fa20020 	lw	v0,32(sp)
    15e8:	8e230000 	lw	v1,0(s1)
    15ec:	00c21021 	addu	v0,a2,v0
    15f0:	00521021 	addu	v0,v0,s2
    15f4:	0062182b 	sltu	v1,v1,v0
    15f8:	10600002 	beqz	v1,1604 <_Unwind_IteratePhdrCallback+0x56c>
    15fc:	8fbc0010 	lw	gp,16(sp)
    1600:	ae340010 	sw	s4,16(s1)
    1604:	00d21021 	addu	v0,a2,s2
    1608:	ae22000c 	sw	v0,12(s1)
    160c:	1000ff19 	b	1274 <_Unwind_IteratePhdrCallback+0x1dc>
    1610:	24030001 	li	v1,1
    1614:	8f990000 	lw	t9,0(gp)
    1618:	0320f809 	jalr	t9
    161c:	00000000 	nop

00001620 <__register_frame_table>:
    1620:	3c1c0000 	lui	gp,0x0
    1624:	279c0000 	addiu	gp,gp,0
    1628:	0399e021 	addu	gp,gp,t9
    162c:	27bdffe0 	addiu	sp,sp,-32
    1630:	afbf001c 	sw	ra,28(sp)
    1634:	afb00018 	sw	s0,24(sp)
    1638:	afbc0010 	sw	gp,16(sp)
    163c:	8f990000 	lw	t9,0(gp)
    1640:	00808021 	move	s0,a0
    1644:	0320f809 	jalr	t9
    1648:	24040018 	li	a0,24
    164c:	8fbc0010 	lw	gp,16(sp)
    1650:	02002021 	move	a0,s0
    1654:	8fbf001c 	lw	ra,28(sp)
    1658:	8f990000 	lw	t9,0(gp)
    165c:	8fb00018 	lw	s0,24(sp)
    1660:	00402821 	move	a1,v0
    1664:	03200008 	jr	t9
    1668:	27bd0020 	addiu	sp,sp,32

0000166c <__register_frame>:
    166c:	3c1c0000 	lui	gp,0x0
    1670:	279c0000 	addiu	gp,gp,0
    1674:	0399e021 	addu	gp,gp,t9
    1678:	27bdffe0 	addiu	sp,sp,-32
    167c:	afbf001c 	sw	ra,28(sp)
    1680:	afb00018 	sw	s0,24(sp)
    1684:	afbc0010 	sw	gp,16(sp)
    1688:	8c820000 	lw	v0,0(a0)
    168c:	14400005 	bnez	v0,16a4 <__register_frame+0x38>
    1690:	00808021 	move	s0,a0
    1694:	8fbf001c 	lw	ra,28(sp)
    1698:	8fb00018 	lw	s0,24(sp)
    169c:	03e00008 	jr	ra
    16a0:	27bd0020 	addiu	sp,sp,32
    16a4:	8f990000 	lw	t9,0(gp)
    16a8:	0320f809 	jalr	t9
    16ac:	24040018 	li	a0,24
    16b0:	8fbc0010 	lw	gp,16(sp)
    16b4:	02002021 	move	a0,s0
    16b8:	8fbf001c 	lw	ra,28(sp)
    16bc:	8f990000 	lw	t9,0(gp)
    16c0:	8fb00018 	lw	s0,24(sp)
    16c4:	00402821 	move	a1,v0
    16c8:	03200008 	jr	t9
    16cc:	27bd0020 	addiu	sp,sp,32

000016d0 <search_object>:
    16d0:	3c1c0000 	lui	gp,0x0
    16d4:	279c0000 	addiu	gp,gp,0
    16d8:	0399e021 	addu	gp,gp,t9
    16dc:	27bdff80 	addiu	sp,sp,-128
    16e0:	afbf007c 	sw	ra,124(sp)
    16e4:	afbe0078 	sw	s8,120(sp)
    16e8:	afb70074 	sw	s7,116(sp)
    16ec:	afb60070 	sw	s6,112(sp)
    16f0:	afb5006c 	sw	s5,108(sp)
    16f4:	afb40068 	sw	s4,104(sp)
    16f8:	afb30064 	sw	s3,100(sp)
    16fc:	afb20060 	sw	s2,96(sp)
    1700:	afb1005c 	sw	s1,92(sp)
    1704:	afb00058 	sw	s0,88(sp)
    1708:	afbc0010 	sw	gp,16(sp)
    170c:	8c830010 	lw	v1,16(a0)
    1710:	0080b821 	move	s7,a0
    1714:	30620001 	andi	v0,v1,0x1
    1718:	10400023 	beqz	v0,17a8 <search_object+0xd8>
    171c:	afa50084 	sw	a1,132(sp)
    1720:	7c620080 	ext	v0,v1,0x2,0x1
    1724:	14400132 	bnez	v0,1bf0 <search_object+0x520>
    1728:	8f820000 	lw	v0,0(gp)
    172c:	7c7438c0 	ext	s4,v1,0x3,0x8
    1730:	1680019f 	bnez	s4,1db0 <search_object+0x6e0>
    1734:	00003021 	move	a2,zero
    1738:	8ee4000c 	lw	a0,12(s7)
    173c:	8c890004 	lw	t1,4(a0)
    1740:	00c9102b 	sltu	v0,a2,t1
    1744:	1040016a 	beqz	v0,1cf0 <search_object+0x620>
    1748:	00c91021 	addu	v0,a2,t1
    174c:	10000006 	b	1768 <search_object+0x98>
    1750:	00023842 	srl	a3,v0,0x1
    1754:	00c7102b 	sltu	v0,a2,a3
    1758:	10400165 	beqz	v0,1cf0 <search_object+0x620>
    175c:	00e04821 	move	t1,a3
    1760:	00e61021 	addu	v0,a3,a2
    1764:	00023842 	srl	a3,v0,0x1
    1768:	24e30002 	addiu	v1,a3,2
    176c:	00031880 	sll	v1,v1,0x2
    1770:	00831821 	addu	v1,a0,v1
    1774:	8c710000 	lw	s1,0(v1)
    1778:	8fa50084 	lw	a1,132(sp)
    177c:	8e230008 	lw	v1,8(s1)
    1780:	00a3102b 	sltu	v0,a1,v1
    1784:	1440fff3 	bnez	v0,1754 <search_object+0x84>
    1788:	8e28000c 	lw	t0,12(s1)
    178c:	8fb90084 	lw	t9,132(sp)
    1790:	00681021 	addu	v0,v1,t0
    1794:	0322102b 	sltu	v0,t9,v0
    1798:	14400108 	bnez	v0,1bbc <search_object+0x4ec>
    179c:	24e60001 	addiu	a2,a3,1
    17a0:	1000ffe8 	b	1744 <search_object+0x74>
    17a4:	00c9102b 	sltu	v0,a2,t1
    17a8:	7c62a2c0 	ext	v0,v1,0xb,0x15
    17ac:	104000d1 	beqz	v0,1af4 <search_object+0x424>
    17b0:	afa20034 	sw	v0,52(sp)
    17b4:	8fa70034 	lw	a3,52(sp)
    17b8:	8f990000 	lw	t9,0(gp)
    17bc:	24e20002 	addiu	v0,a3,2
    17c0:	00028080 	sll	s0,v0,0x2
    17c4:	0320f809 	jalr	t9
    17c8:	02002021 	move	a0,s0
    17cc:	8fbc0010 	lw	gp,16(sp)
    17d0:	104000e8 	beqz	v0,1b74 <search_object+0x4a4>
    17d4:	afa20020 	sw	v0,32(sp)
    17d8:	8f990000 	lw	t9,0(gp)
    17dc:	ac400004 	sw	zero,4(v0)
    17e0:	0320f809 	jalr	t9
    17e4:	02002021 	move	a0,s0
    17e8:	8fbc0010 	lw	gp,16(sp)
    17ec:	10400002 	beqz	v0,17f8 <search_object+0x128>
    17f0:	afa20024 	sw	v0,36(sp)
    17f4:	ac400004 	sw	zero,4(v0)
    17f8:	8ee20010 	lw	v0,16(s7)
    17fc:	7c420040 	ext	v0,v0,0x1,0x1
    1800:	10400162 	beqz	v0,1d8c <search_object+0x6bc>
    1804:	8f990000 	lw	t9,0(gp)
    1808:	8ef0000c 	lw	s0,12(s7)
    180c:	8e060000 	lw	a2,0(s0)
    1810:	10c0000b 	beqz	a2,1840 <search_object+0x170>
    1814:	8f820000 	lw	v0,0(gp)
    1818:	27b20020 	addiu	s2,sp,32
    181c:	24510a30 	addiu	s1,v0,2608
    1820:	26100004 	addiu	s0,s0,4
    1824:	02e02021 	move	a0,s7
    1828:	0220c821 	move	t9,s1
    182c:	0320f809 	jalr	t9
    1830:	02402821 	move	a1,s2
    1834:	8e060000 	lw	a2,0(s0)
    1838:	14c0fff9 	bnez	a2,1820 <search_object+0x150>
    183c:	8fbc0010 	lw	gp,16(sp)
    1840:	8fa20020 	lw	v0,32(sp)
    1844:	afa20044 	sw	v0,68(sp)
    1848:	10400005 	beqz	v0,1860 <search_object+0x190>
    184c:	afa20040 	sw	v0,64(sp)
    1850:	8c420004 	lw	v0,4(v0)
    1854:	8fa30034 	lw	v1,52(sp)
    1858:	146201af 	bne	v1,v0,1f18 <search_object+0x848>
    185c:	8f990000 	lw	t9,0(gp)
    1860:	8ee30010 	lw	v1,16(s7)
    1864:	7c620080 	ext	v0,v1,0x2,0x1
    1868:	10400143 	beqz	v0,1d78 <search_object+0x6a8>
    186c:	7c6238c0 	ext	v0,v1,0x3,0x8
    1870:	8f820000 	lw	v0,0(gp)
    1874:	24550cdc 	addiu	s5,v0,3292
    1878:	8fb20024 	lw	s2,36(sp)
    187c:	12400186 	beqz	s2,1e98 <search_object+0x7c8>
    1880:	afb2003c 	sw	s2,60(sp)
    1884:	8fa40044 	lw	a0,68(sp)
    1888:	8c840004 	lw	a0,4(a0)
    188c:	1080017f 	beqz	a0,1e8c <search_object+0x7bc>
    1890:	afa40038 	sw	a0,56(sp)
    1894:	8f820000 	lw	v0,0(gp)
    1898:	8fa40038 	lw	a0,56(sp)
    189c:	8fa50044 	lw	a1,68(sp)
    18a0:	00001821 	move	v1,zero
    18a4:	24530018 	addiu	s3,v0,24
    18a8:	247e0001 	addiu	s8,v1,1
    18ac:	0240b021 	move	s6,s2
    18b0:	02608021 	move	s0,s3
    18b4:	03c4102b 	sltu	v0,s8,a0
    18b8:	24b40008 	addiu	s4,a1,8
    18bc:	afb2002c 	sw	s2,44(sp)
    18c0:	afa50028 	sw	a1,40(sp)
    18c4:	00a08821 	move	s1,a1
    18c8:	10400020 	beqz	v0,194c <search_object+0x27c>
    18cc:	aed00008 	sw	s0,8(s6)
    18d0:	8fa50044 	lw	a1,68(sp)
    18d4:	24620002 	addiu	v0,v1,2
    18d8:	00021080 	sll	v0,v0,0x2
    18dc:	00a28021 	addu	s0,a1,v0
    18e0:	1613000b 	bne	s0,s3,1910 <search_object+0x240>
    18e4:	8fa40038 	lw	a0,56(sp)
    18e8:	10000012 	b	1934 <search_object+0x264>
    18ec:	03c01821 	move	v1,s8
    18f0:	02141023 	subu	v0,s0,s4
    18f4:	00021083 	sra	v0,v0,0x2
    18f8:	24420002 	addiu	v0,v0,2
    18fc:	00021080 	sll	v0,v0,0x2
    1900:	02421021 	addu	v0,s2,v0
    1904:	8c500000 	lw	s0,0(v0)
    1908:	12130008 	beq	s0,s3,192c <search_object+0x25c>
    190c:	ac400000 	sw	zero,0(v0)
    1910:	8e25000c 	lw	a1,12(s1)
    1914:	8e060000 	lw	a2,0(s0)
    1918:	02a0c821 	move	t9,s5
    191c:	0320f809 	jalr	t9
    1920:	02e02021 	move	a0,s7
    1924:	0440fff2 	bltz	v0,18f0 <search_object+0x220>
    1928:	8fbc0010 	lw	gp,16(sp)
    192c:	8fa40038 	lw	a0,56(sp)
    1930:	03c01821 	move	v1,s8
    1934:	247e0001 	addiu	s8,v1,1
    1938:	26d60004 	addiu	s6,s6,4
    193c:	03c4102b 	sltu	v0,s8,a0
    1940:	26310004 	addiu	s1,s1,4
    1944:	1440ffe2 	bnez	v0,18d0 <search_object+0x200>
    1948:	aed00008 	sw	s0,8(s6)
    194c:	00002021 	move	a0,zero
    1950:	00002821 	move	a1,zero
    1954:	10000012 	b	19a0 <search_object+0x2d0>
    1958:	00003021 	move	a2,zero
    195c:	8fa70044 	lw	a3,68(sp)
    1960:	24a20002 	addiu	v0,a1,2
    1964:	8f230008 	lw	v1,8(t9)
    1968:	00021080 	sll	v0,v0,0x2
    196c:	00e21021 	addu	v0,a3,v0
    1970:	ac430000 	sw	v1,0(v0)
    1974:	8fa7002c 	lw	a3,44(sp)
    1978:	8fb90028 	lw	t9,40(sp)
    197c:	8fa30038 	lw	v1,56(sp)
    1980:	24840001 	addiu	a0,a0,1
    1984:	24e70004 	addiu	a3,a3,4
    1988:	27390004 	addiu	t9,t9,4
    198c:	0083102b 	sltu	v0,a0,v1
    1990:	24a50001 	addiu	a1,a1,1
    1994:	afa7002c 	sw	a3,44(sp)
    1998:	10400015 	beqz	v0,19f0 <search_object+0x320>
    199c:	afb90028 	sw	t9,40(sp)
    19a0:	8fa7002c 	lw	a3,44(sp)
    19a4:	8ce20008 	lw	v0,8(a3)
    19a8:	1440ffec 	bnez	v0,195c <search_object+0x28c>
    19ac:	8fb90028 	lw	t9,40(sp)
    19b0:	24c20002 	addiu	v0,a2,2
    19b4:	00021080 	sll	v0,v0,0x2
    19b8:	8f230008 	lw	v1,8(t9)
    19bc:	02421021 	addu	v0,s2,v0
    19c0:	8fa7002c 	lw	a3,44(sp)
    19c4:	ac430000 	sw	v1,0(v0)
    19c8:	8fb90028 	lw	t9,40(sp)
    19cc:	8fa30038 	lw	v1,56(sp)
    19d0:	24840001 	addiu	a0,a0,1
    19d4:	24e70004 	addiu	a3,a3,4
    19d8:	27390004 	addiu	t9,t9,4
    19dc:	0083102b 	sltu	v0,a0,v1
    19e0:	24c60001 	addiu	a2,a2,1
    19e4:	afa7002c 	sw	a3,44(sp)
    19e8:	1440ffed 	bnez	v0,19a0 <search_object+0x2d0>
    19ec:	afb90028 	sw	t9,40(sp)
    19f0:	8fa20020 	lw	v0,32(sp)
    19f4:	8fb20024 	lw	s2,36(sp)
    19f8:	afa20044 	sw	v0,68(sp)
    19fc:	8fa30040 	lw	v1,64(sp)
    1a00:	8fa4003c 	lw	a0,60(sp)
    1a04:	8fa70034 	lw	a3,52(sp)
    1a08:	ac650004 	sw	a1,4(v1)
    1a0c:	8fa50044 	lw	a1,68(sp)
    1a10:	ac860004 	sw	a2,4(a0)
    1a14:	8e420004 	lw	v0,4(s2)
    1a18:	8ca30004 	lw	v1,4(a1)
    1a1c:	00431021 	addu	v0,v0,v1
    1a20:	14e2013c 	bne	a3,v0,1f14 <search_object+0x844>
    1a24:	8f990000 	lw	t9,0(gp)
    1a28:	02403021 	move	a2,s2
    1a2c:	02e02021 	move	a0,s7
    1a30:	27390320 	addiu	t9,t9,800
    1a34:	0320f809 	jalr	t9
    1a38:	02a02821 	move	a1,s5
    1a3c:	8fb90024 	lw	t9,36(sp)
    1a40:	8fbc0010 	lw	gp,16(sp)
    1a44:	8fbe0020 	lw	s8,32(sp)
    1a48:	8f230004 	lw	v1,4(t9)
    1a4c:	106000bd 	beqz	v1,1d44 <search_object+0x674>
    1a50:	afb90030 	sw	t9,48(sp)
    1a54:	24620001 	addiu	v0,v1,1
    1a58:	8fd20004 	lw	s2,4(s8)
    1a5c:	00021080 	sll	v0,v0,0x2
    1a60:	0322b021 	addu	s6,t9,v0
    1a64:	2474ffff 	addiu	s4,v1,-1
    1a68:	12400017 	beqz	s2,1ac8 <search_object+0x3f8>
    1a6c:	8ed30000 	lw	s3,0(s6)
    1a70:	00721821 	addu	v1,v1,s2
    1a74:	24630001 	addiu	v1,v1,1
    1a78:	26420001 	addiu	v0,s2,1
    1a7c:	00021080 	sll	v0,v0,0x2
    1a80:	00031880 	sll	v1,v1,0x2
    1a84:	03c28021 	addu	s0,s8,v0
    1a88:	10000007 	b	1aa8 <search_object+0x3d8>
    1a8c:	03c38821 	addu	s1,s8,v1
    1a90:	8e020000 	lw	v0,0(s0)
    1a94:	2610fffc 	addiu	s0,s0,-4
    1a98:	ae220000 	sw	v0,0(s1)
    1a9c:	1080000b 	beqz	a0,1acc <search_object+0x3fc>
    1aa0:	2631fffc 	addiu	s1,s1,-4
    1aa4:	00809021 	move	s2,a0
    1aa8:	8e050000 	lw	a1,0(s0)
    1aac:	02e02021 	move	a0,s7
    1ab0:	02a0c821 	move	t9,s5
    1ab4:	0320f809 	jalr	t9
    1ab8:	02603021 	move	a2,s3
    1abc:	8fbc0010 	lw	gp,16(sp)
    1ac0:	1c40fff3 	bgtz	v0,1a90 <search_object+0x3c0>
    1ac4:	2644ffff 	addiu	a0,s2,-1
    1ac8:	02402021 	move	a0,s2
    1acc:	00941021 	addu	v0,a0,s4
    1ad0:	24420002 	addiu	v0,v0,2
    1ad4:	00021080 	sll	v0,v0,0x2
    1ad8:	03c21021 	addu	v0,s8,v0
    1adc:	ac530000 	sw	s3,0(v0)
    1ae0:	12800091 	beqz	s4,1d28 <search_object+0x658>
    1ae4:	26d6fffc 	addiu	s6,s6,-4
    1ae8:	02801821 	move	v1,s4
    1aec:	1000ffdd 	b	1a64 <search_object+0x394>
    1af0:	00809021 	move	s2,a0
    1af4:	7c620040 	ext	v0,v1,0x1,0x1
    1af8:	10400077 	beqz	v0,1cd8 <search_object+0x608>
    1afc:	8f990000 	lw	t9,0(gp)
    1b00:	8c90000c 	lw	s0,12(a0)
    1b04:	8e050000 	lw	a1,0(s0)
    1b08:	10a000fe 	beqz	a1,1f04 <search_object+0x834>
    1b0c:	8f820000 	lw	v0,0(gp)
    1b10:	24510858 	addiu	s1,v0,2136
    1b14:	0220c821 	move	t9,s1
    1b18:	0320f809 	jalr	t9
    1b1c:	02e02021 	move	a0,s7
    1b20:	8fa30034 	lw	v1,52(sp)
    1b24:	26100004 	addiu	s0,s0,4
    1b28:	8e050000 	lw	a1,0(s0)
    1b2c:	00621821 	addu	v1,v1,v0
    1b30:	8fbc0010 	lw	gp,16(sp)
    1b34:	14a0fff7 	bnez	a1,1b14 <search_object+0x444>
    1b38:	afa30034 	sw	v1,52(sp)
    1b3c:	8fa40034 	lw	a0,52(sp)
    1b40:	8ee30010 	lw	v1,16(s7)
    1b44:	3c02001f 	lui	v0,0x1f
    1b48:	3442ffff 	ori	v0,v0,0xffff
    1b4c:	00821024 	and	v0,a0,v0
    1b50:	7c43fac4 	ins	v1,v0,0xb,0x15
    1b54:	10820004 	beq	a0,v0,1b68 <search_object+0x498>
    1b58:	aee30010 	sw	v1,16(s7)
    1b5c:	00601021 	move	v0,v1
    1b60:	7c02fac4 	ins	v0,zero,0xb,0x15
    1b64:	aee20010 	sw	v0,16(s7)
    1b68:	8fa50034 	lw	a1,52(sp)
    1b6c:	14a0ff12 	bnez	a1,17b8 <search_object+0xe8>
    1b70:	8fa70034 	lw	a3,52(sp)
    1b74:	8ee20000 	lw	v0,0(s7)
    1b78:	8fa50084 	lw	a1,132(sp)
    1b7c:	00a2102b 	sltu	v0,a1,v0
    1b80:	1440005c 	bnez	v0,1cf4 <search_object+0x624>
    1b84:	8fbf007c 	lw	ra,124(sp)
    1b88:	8ee30010 	lw	v1,16(s7)
    1b8c:	30620001 	andi	v0,v1,0x1
    1b90:	1440fee3 	bnez	v0,1720 <search_object+0x50>
    1b94:	7c620040 	ext	v0,v1,0x1,0x1
    1b98:	144000c7 	bnez	v0,1eb8 <search_object+0x7e8>
    1b9c:	8f990000 	lw	t9,0(gp)
    1ba0:	8ee5000c 	lw	a1,12(s7)
    1ba4:	8fa60084 	lw	a2,132(sp)
    1ba8:	27390e0c 	addiu	t9,t9,3596
    1bac:	0320f809 	jalr	t9
    1bb0:	02e02021 	move	a0,s7
    1bb4:	8fbc0010 	lw	gp,16(sp)
    1bb8:	00408821 	move	s1,v0
    1bbc:	8fbf007c 	lw	ra,124(sp)
    1bc0:	02201021 	move	v0,s1
    1bc4:	8fbe0078 	lw	s8,120(sp)
    1bc8:	8fb70074 	lw	s7,116(sp)
    1bcc:	8fb60070 	lw	s6,112(sp)
    1bd0:	8fb5006c 	lw	s5,108(sp)
    1bd4:	8fb40068 	lw	s4,104(sp)
    1bd8:	8fb30064 	lw	s3,100(sp)
    1bdc:	8fb20060 	lw	s2,96(sp)
    1be0:	8fb1005c 	lw	s1,92(sp)
    1be4:	8fb00058 	lw	s0,88(sp)
    1be8:	03e00008 	jr	ra
    1bec:	27bd0080 	addiu	sp,sp,128
    1bf0:	8ef5000c 	lw	s5,12(s7)
    1bf4:	27a70018 	addiu	a3,sp,24
    1bf8:	8eb40004 	lw	s4,4(s5)
    1bfc:	24560568 	addiu	s6,v0,1384
    1c00:	00009821 	move	s3,zero
    1c04:	27be001c 	addiu	s8,sp,28
    1c08:	afa70048 	sw	a3,72(sp)
    1c0c:	0274102b 	sltu	v0,s3,s4
    1c10:	14400007 	bnez	v0,1c30 <search_object+0x560>
    1c14:	02931821 	addu	v1,s4,s3
    1c18:	10000036 	b	1cf4 <search_object+0x624>
    1c1c:	8fbf007c 	lw	ra,124(sp)
    1c20:	0272102b 	sltu	v0,s3,s2
    1c24:	10400032 	beqz	v0,1cf0 <search_object+0x620>
    1c28:	0240a021 	move	s4,s2
    1c2c:	02931821 	addu	v1,s4,s3
    1c30:	00039042 	srl	s2,v1,0x1
    1c34:	26420002 	addiu	v0,s2,2
    1c38:	00021080 	sll	v0,v0,0x2
    1c3c:	02a21021 	addu	v0,s5,v0
    1c40:	8c510000 	lw	s1,0(v0)
    1c44:	8f990000 	lw	t9,0(gp)
    1c48:	8e230004 	lw	v1,4(s1)
    1c4c:	26240004 	addiu	a0,s1,4
    1c50:	273906ec 	addiu	t9,t9,1772
    1c54:	0320f809 	jalr	t9
    1c58:	00832023 	subu	a0,a0,v1
    1c5c:	8fbc0010 	lw	gp,16(sp)
    1c60:	305000ff 	andi	s0,v0,0xff
    1c64:	02002021 	move	a0,s0
    1c68:	8f990000 	lw	t9,0(gp)
    1c6c:	273904c8 	addiu	t9,t9,1224
    1c70:	0320f809 	jalr	t9
    1c74:	02e02821 	move	a1,s7
    1c78:	00402821 	move	a1,v0
    1c7c:	02002021 	move	a0,s0
    1c80:	26260008 	addiu	a2,s1,8
    1c84:	02c0c821 	move	t9,s6
    1c88:	0320f809 	jalr	t9
    1c8c:	03c03821 	move	a3,s8
    1c90:	8fa70048 	lw	a3,72(sp)
    1c94:	3204000f 	andi	a0,s0,0xf
    1c98:	00403021 	move	a2,v0
    1c9c:	02c0c821 	move	t9,s6
    1ca0:	0320f809 	jalr	t9
    1ca4:	00002821 	move	a1,zero
    1ca8:	8fa3001c 	lw	v1,28(sp)
    1cac:	8fa40084 	lw	a0,132(sp)
    1cb0:	0083102b 	sltu	v0,a0,v1
    1cb4:	1440ffda 	bnez	v0,1c20 <search_object+0x550>
    1cb8:	8fbc0010 	lw	gp,16(sp)
    1cbc:	8fa20018 	lw	v0,24(sp)
    1cc0:	00621021 	addu	v0,v1,v0
    1cc4:	0082102b 	sltu	v0,a0,v0
    1cc8:	1440ffbc 	bnez	v0,1bbc <search_object+0x4ec>
    1ccc:	26530001 	addiu	s3,s2,1
    1cd0:	1000ffcf 	b	1c10 <search_object+0x540>
    1cd4:	0274102b 	sltu	v0,s3,s4
    1cd8:	27390858 	addiu	t9,t9,2136
    1cdc:	0320f809 	jalr	t9
    1ce0:	8c85000c 	lw	a1,12(a0)
    1ce4:	8fbc0010 	lw	gp,16(sp)
    1ce8:	1000ff94 	b	1b3c <search_object+0x46c>
    1cec:	afa20034 	sw	v0,52(sp)
    1cf0:	8fbf007c 	lw	ra,124(sp)
    1cf4:	00008821 	move	s1,zero
    1cf8:	02201021 	move	v0,s1
    1cfc:	8fbe0078 	lw	s8,120(sp)
    1d00:	8fb70074 	lw	s7,116(sp)
    1d04:	8fb60070 	lw	s6,112(sp)
    1d08:	8fb5006c 	lw	s5,108(sp)
    1d0c:	8fb40068 	lw	s4,104(sp)
    1d10:	8fb30064 	lw	s3,100(sp)
    1d14:	8fb20060 	lw	s2,96(sp)
    1d18:	8fb1005c 	lw	s1,92(sp)
    1d1c:	8fb00058 	lw	s0,88(sp)
    1d20:	03e00008 	jr	ra
    1d24:	27bd0080 	addiu	sp,sp,128
    1d28:	8fa20030 	lw	v0,48(sp)
    1d2c:	8fa40024 	lw	a0,36(sp)
    1d30:	8c430004 	lw	v1,4(v0)
    1d34:	8fc20004 	lw	v0,4(s8)
    1d38:	afa40030 	sw	a0,48(sp)
    1d3c:	00431021 	addu	v0,v0,v1
    1d40:	afc20004 	sw	v0,4(s8)
    1d44:	8f990000 	lw	t9,0(gp)
    1d48:	0320f809 	jalr	t9
    1d4c:	8fa40030 	lw	a0,48(sp)
    1d50:	8fbc0010 	lw	gp,16(sp)
    1d54:	8fa40020 	lw	a0,32(sp)
    1d58:	8ee2000c 	lw	v0,12(s7)
    1d5c:	ac820000 	sw	v0,0(a0)
    1d60:	8ee30010 	lw	v1,16(s7)
    1d64:	24020001 	li	v0,1
    1d68:	aee4000c 	sw	a0,12(s7)
    1d6c:	7c430004 	ins	v1,v0,0x0,0x1
    1d70:	1000ff80 	b	1b74 <search_object+0x4a4>
    1d74:	aee30010 	sw	v1,16(s7)
    1d78:	1040000b 	beqz	v0,1da8 <search_object+0x6d8>
    1d7c:	8f820000 	lw	v0,0(gp)
    1d80:	8f820000 	lw	v0,0(gp)
    1d84:	1000febc 	b	1878 <search_object+0x1a8>
    1d88:	24550bfc 	addiu	s5,v0,3068
    1d8c:	8ee6000c 	lw	a2,12(s7)
    1d90:	02e02021 	move	a0,s7
    1d94:	27390a30 	addiu	t9,t9,2608
    1d98:	0320f809 	jalr	t9
    1d9c:	27a50020 	addiu	a1,sp,32
    1da0:	1000fea7 	b	1840 <search_object+0x170>
    1da4:	8fbc0010 	lw	gp,16(sp)
    1da8:	1000feb3 	b	1878 <search_object+0x1a8>
    1dac:	245501a4 	addiu	s5,v0,420
    1db0:	8f990000 	lw	t9,0(gp)
    1db4:	02e02821 	move	a1,s7
    1db8:	02802021 	move	a0,s4
    1dbc:	273904c8 	addiu	t9,t9,1224
    1dc0:	0320f809 	jalr	t9
    1dc4:	8ef6000c 	lw	s6,12(s7)
    1dc8:	8fbc0010 	lw	gp,16(sp)
    1dcc:	0040b821 	move	s7,v0
    1dd0:	8ed30004 	lw	s3,4(s6)
    1dd4:	8f820000 	lw	v0,0(gp)
    1dd8:	27a7001c 	addiu	a3,sp,28
    1ddc:	27b90018 	addiu	t9,sp,24
    1de0:	245e0568 	addiu	s8,v0,1384
    1de4:	00009021 	move	s2,zero
    1de8:	3295000f 	andi	s5,s4,0xf
    1dec:	afa7004c 	sw	a3,76(sp)
    1df0:	afb90050 	sw	t9,80(sp)
    1df4:	0253102b 	sltu	v0,s2,s3
    1df8:	14400007 	bnez	v0,1e18 <search_object+0x748>
    1dfc:	02721021 	addu	v0,s3,s2
    1e00:	1000ffbc 	b	1cf4 <search_object+0x624>
    1e04:	8fbf007c 	lw	ra,124(sp)
    1e08:	0250102b 	sltu	v0,s2,s0
    1e0c:	1040ffb8 	beqz	v0,1cf0 <search_object+0x620>
    1e10:	02009821 	move	s3,s0
    1e14:	02721021 	addu	v0,s3,s2
    1e18:	00028042 	srl	s0,v0,0x1
    1e1c:	26030002 	addiu	v1,s0,2
    1e20:	00031880 	sll	v1,v1,0x2
    1e24:	02c31821 	addu	v1,s6,v1
    1e28:	8c710000 	lw	s1,0(v1)
    1e2c:	8fa70050 	lw	a3,80(sp)
    1e30:	02802021 	move	a0,s4
    1e34:	02e02821 	move	a1,s7
    1e38:	03c0c821 	move	t9,s8
    1e3c:	0320f809 	jalr	t9
    1e40:	26260008 	addiu	a2,s1,8
    1e44:	8fa7004c 	lw	a3,76(sp)
    1e48:	02a02021 	move	a0,s5
    1e4c:	00403021 	move	a2,v0
    1e50:	03c0c821 	move	t9,s8
    1e54:	0320f809 	jalr	t9
    1e58:	00002821 	move	a1,zero
    1e5c:	8fa30018 	lw	v1,24(sp)
    1e60:	8fa40084 	lw	a0,132(sp)
    1e64:	0083102b 	sltu	v0,a0,v1
    1e68:	1440ffe7 	bnez	v0,1e08 <search_object+0x738>
    1e6c:	8fbc0010 	lw	gp,16(sp)
    1e70:	8fa2001c 	lw	v0,28(sp)
    1e74:	00621021 	addu	v0,v1,v0
    1e78:	0082102b 	sltu	v0,a0,v0
    1e7c:	1440ff4f 	bnez	v0,1bbc <search_object+0x4ec>
    1e80:	26120001 	addiu	s2,s0,1
    1e84:	1000ffdc 	b	1df8 <search_object+0x728>
    1e88:	0253102b 	sltu	v0,s2,s3
    1e8c:	00002821 	move	a1,zero
    1e90:	1000feda 	b	19fc <search_object+0x32c>
    1e94:	00003021 	move	a2,zero
    1e98:	8f990000 	lw	t9,0(gp)
    1e9c:	8fa60044 	lw	a2,68(sp)
    1ea0:	02a02821 	move	a1,s5
    1ea4:	27390320 	addiu	t9,t9,800
    1ea8:	0320f809 	jalr	t9
    1eac:	02e02021 	move	a0,s7
    1eb0:	1000ffa8 	b	1d54 <search_object+0x684>
    1eb4:	8fbc0010 	lw	gp,16(sp)
    1eb8:	8ef0000c 	lw	s0,12(s7)
    1ebc:	8e050000 	lw	a1,0(s0)
    1ec0:	10a0ff8b 	beqz	a1,1cf0 <search_object+0x620>
    1ec4:	8f820000 	lw	v0,0(gp)
    1ec8:	10000005 	b	1ee0 <search_object+0x810>
    1ecc:	24520e0c 	addiu	s2,v0,3596
    1ed0:	26100004 	addiu	s0,s0,4
    1ed4:	8e050000 	lw	a1,0(s0)
    1ed8:	10a0ff39 	beqz	a1,1bc0 <search_object+0x4f0>
    1edc:	8fbf007c 	lw	ra,124(sp)
    1ee0:	8fa60084 	lw	a2,132(sp)
    1ee4:	0240c821 	move	t9,s2
    1ee8:	0320f809 	jalr	t9
    1eec:	02e02021 	move	a0,s7
    1ef0:	8fbc0010 	lw	gp,16(sp)
    1ef4:	1040fff6 	beqz	v0,1ed0 <search_object+0x800>
    1ef8:	00408821 	move	s1,v0
    1efc:	1000ff30 	b	1bc0 <search_object+0x4f0>
    1f00:	8fbf007c 	lw	ra,124(sp)
    1f04:	00601021 	move	v0,v1
    1f08:	7c02fac4 	ins	v0,zero,0xb,0x15
    1f0c:	1000ff19 	b	1b74 <search_object+0x4a4>
    1f10:	ac820010 	sw	v0,16(a0)
    1f14:	8f990000 	lw	t9,0(gp)
    1f18:	0320f809 	jalr	t9
    1f1c:	00000000 	nop

00001f20 <_Unwind_Find_FDE>:
    1f20:	3c1c0000 	lui	gp,0x0
    1f24:	279c0000 	addiu	gp,gp,0
    1f28:	0399e021 	addu	gp,gp,t9
    1f2c:	27bdffa0 	addiu	sp,sp,-96
    1f30:	afbf005c 	sw	ra,92(sp)
    1f34:	afbe0058 	sw	s8,88(sp)
    1f38:	afb70054 	sw	s7,84(sp)
    1f3c:	afb60050 	sw	s6,80(sp)
    1f40:	afb5004c 	sw	s5,76(sp)
    1f44:	afb40048 	sw	s4,72(sp)
    1f48:	afb30044 	sw	s3,68(sp)
    1f4c:	afb20040 	sw	s2,64(sp)
    1f50:	afb1003c 	sw	s1,60(sp)
    1f54:	afb00038 	sw	s0,56(sp)
    1f58:	afbc0010 	sw	gp,16(sp)
    1f5c:	8f820000 	lw	v0,0(gp)
    1f60:	00809821 	move	s3,a0
    1f64:	10400006 	beqz	v0,1f80 <_Unwind_Find_FDE+0x60>
    1f68:	00a0f021 	move	s8,a1
    1f6c:	8f840000 	lw	a0,0(gp)
    1f70:	8f990000 	lw	t9,0(gp)
    1f74:	0320f809 	jalr	t9
    1f78:	24840000 	addiu	a0,a0,0
    1f7c:	8fbc0010 	lw	gp,16(sp)
    1f80:	8f970000 	lw	s7,0(gp)
    1f84:	8ee4002c 	lw	a0,44(s7)
    1f88:	14800006 	bnez	a0,1fa4 <_Unwind_Find_FDE+0x84>
    1f8c:	8f900000 	lw	s0,0(gp)
    1f90:	10000040 	b	2094 <_Unwind_Find_FDE+0x174>
    1f94:	8f820000 	lw	v0,0(gp)
    1f98:	8c840014 	lw	a0,20(a0)
    1f9c:	1080003c 	beqz	a0,2090 <_Unwind_Find_FDE+0x170>
    1fa0:	8f900000 	lw	s0,0(gp)
    1fa4:	8c820000 	lw	v0,0(a0)
    1fa8:	0262102b 	sltu	v0,s3,v0
    1fac:	1440fffa 	bnez	v0,1f98 <_Unwind_Find_FDE+0x78>
    1fb0:	8f990000 	lw	t9,0(gp)
    1fb4:	02602821 	move	a1,s3
    1fb8:	273916d0 	addiu	t9,t9,5840
    1fbc:	0320f809 	jalr	t9
    1fc0:	00808821 	move	s1,a0
    1fc4:	8fbc0010 	lw	gp,16(sp)
    1fc8:	10400030 	beqz	v0,208c <_Unwind_Find_FDE+0x16c>
    1fcc:	00409021 	move	s2,v0
    1fd0:	8f820000 	lw	v0,0(gp)
    1fd4:	10400005 	beqz	v0,1fec <_Unwind_Find_FDE+0xcc>
    1fd8:	8f990000 	lw	t9,0(gp)
    1fdc:	8f840000 	lw	a0,0(gp)
    1fe0:	0320f809 	jalr	t9
    1fe4:	24840000 	addiu	a0,a0,0
    1fe8:	8fbc0010 	lw	gp,16(sp)
    1fec:	12400059 	beqz	s2,2154 <_Unwind_Find_FDE+0x234>
    1ff0:	8f990000 	lw	t9,0(gp)
    1ff4:	8e220004 	lw	v0,4(s1)
    1ff8:	afc20000 	sw	v0,0(s8)
    1ffc:	8e230008 	lw	v1,8(s1)
    2000:	afc30004 	sw	v1,4(s8)
    2004:	8e220010 	lw	v0,16(s1)
    2008:	7c430080 	ext	v1,v0,0x2,0x1
    200c:	14600049 	bnez	v1,2134 <_Unwind_Find_FDE+0x214>
    2010:	7c4238c0 	ext	v0,v0,0x3,0x8
    2014:	8f990000 	lw	t9,0(gp)
    2018:	305000ff 	andi	s0,v0,0xff
    201c:	02202821 	move	a1,s1
    2020:	273904c8 	addiu	t9,t9,1224
    2024:	0320f809 	jalr	t9
    2028:	02002021 	move	a0,s0
    202c:	8fbc0010 	lw	gp,16(sp)
    2030:	02002021 	move	a0,s0
    2034:	00402821 	move	a1,v0
    2038:	8f990000 	lw	t9,0(gp)
    203c:	26460008 	addiu	a2,s2,8
    2040:	27390568 	addiu	t9,t9,1384
    2044:	0320f809 	jalr	t9
    2048:	27a70018 	addiu	a3,sp,24
    204c:	8fa20018 	lw	v0,24(sp)
    2050:	8fbc0010 	lw	gp,16(sp)
    2054:	afc20008 	sw	v0,8(s8)
    2058:	8fbf005c 	lw	ra,92(sp)
    205c:	02401021 	move	v0,s2
    2060:	8fbe0058 	lw	s8,88(sp)
    2064:	8fb70054 	lw	s7,84(sp)
    2068:	8fb60050 	lw	s6,80(sp)
    206c:	8fb5004c 	lw	s5,76(sp)
    2070:	8fb40048 	lw	s4,72(sp)
    2074:	8fb30044 	lw	s3,68(sp)
    2078:	8fb20040 	lw	s2,64(sp)
    207c:	8fb1003c 	lw	s1,60(sp)
    2080:	8fb00038 	lw	s0,56(sp)
    2084:	03e00008 	jr	ra
    2088:	27bd0060 	addiu	sp,sp,96
    208c:	8f900000 	lw	s0,0(gp)
    2090:	8f820000 	lw	v0,0(gp)
    2094:	8f830000 	lw	v1,0(gp)
    2098:	8e110028 	lw	s1,40(s0)
    209c:	8f950000 	lw	s5,0(gp)
    20a0:	245616d0 	addiu	s6,v0,5840
    20a4:	12200021 	beqz	s1,212c <_Unwind_Find_FDE+0x20c>
    20a8:	2474002c 	addiu	s4,v1,44
    20ac:	8e220014 	lw	v0,20(s1)
    20b0:	02202021 	move	a0,s1
    20b4:	02602821 	move	a1,s3
    20b8:	02c0c821 	move	t9,s6
    20bc:	0320f809 	jalr	t9
    20c0:	aea20028 	sw	v0,40(s5)
    20c4:	8ee3002c 	lw	v1,44(s7)
    20c8:	8fbc0010 	lw	gp,16(sp)
    20cc:	00409021 	move	s2,v0
    20d0:	10600010 	beqz	v1,2114 <_Unwind_Find_FDE+0x1f4>
    20d4:	02802021 	move	a0,s4
    20d8:	8e250000 	lw	a1,0(s1)
    20dc:	8c620000 	lw	v0,0(v1)
    20e0:	0045102b 	sltu	v0,v0,a1
    20e4:	10400007 	beqz	v0,2104 <_Unwind_Find_FDE+0x1e4>
    20e8:	00000000 	nop
    20ec:	1000000a 	b	2118 <_Unwind_Find_FDE+0x1f8>
    20f0:	ae230014 	sw	v1,20(s1)
    20f4:	8c620000 	lw	v0,0(v1)
    20f8:	0045102b 	sltu	v0,v0,a1
    20fc:	14400005 	bnez	v0,2114 <_Unwind_Find_FDE+0x1f4>
    2100:	00000000 	nop
    2104:	24640014 	addiu	a0,v1,20
    2108:	8c630014 	lw	v1,20(v1)
    210c:	1460fff9 	bnez	v1,20f4 <_Unwind_Find_FDE+0x1d4>
    2110:	00000000 	nop
    2114:	ae230014 	sw	v1,20(s1)
    2118:	1640ffad 	bnez	s2,1fd0 <_Unwind_Find_FDE+0xb0>
    211c:	ac910000 	sw	s1,0(a0)
    2120:	8e110028 	lw	s1,40(s0)
    2124:	1620ffe1 	bnez	s1,20ac <_Unwind_Find_FDE+0x18c>
    2128:	00000000 	nop
    212c:	1000ffa8 	b	1fd0 <_Unwind_Find_FDE+0xb0>
    2130:	00009021 	move	s2,zero
    2134:	8f990000 	lw	t9,0(gp)
    2138:	8e420004 	lw	v0,4(s2)
    213c:	26440004 	addiu	a0,s2,4
    2140:	273906ec 	addiu	t9,t9,1772
    2144:	0320f809 	jalr	t9
    2148:	00822023 	subu	a0,a0,v0
    214c:	1000ffb1 	b	2014 <_Unwind_Find_FDE+0xf4>
    2150:	8fbc0010 	lw	gp,16(sp)
    2154:	8f840000 	lw	a0,0(gp)
    2158:	24020001 	li	v0,1
    215c:	afb3001c 	sw	s3,28(sp)
    2160:	afa20030 	sw	v0,48(sp)
    2164:	afa00020 	sw	zero,32(sp)
    2168:	afa00024 	sw	zero,36(sp)
    216c:	afa00028 	sw	zero,40(sp)
    2170:	afa0002c 	sw	zero,44(sp)
    2174:	24841098 	addiu	a0,a0,4248
    2178:	0320f809 	jalr	t9
    217c:	27a5001c 	addiu	a1,sp,28
    2180:	0440ffb5 	bltz	v0,2058 <_Unwind_Find_FDE+0x138>
    2184:	8fbc0010 	lw	gp,16(sp)
    2188:	8fb2002c 	lw	s2,44(sp)
    218c:	1240ffb2 	beqz	s2,2058 <_Unwind_Find_FDE+0x138>
    2190:	8fa20024 	lw	v0,36(sp)
    2194:	8fa40028 	lw	a0,40(sp)
    2198:	8fa30020 	lw	v1,32(sp)
    219c:	afc20004 	sw	v0,4(s8)
    21a0:	afc40008 	sw	a0,8(s8)
    21a4:	1000ffac 	b	2058 <_Unwind_Find_FDE+0x138>
    21a8:	afc30000 	sw	v1,0(s8)

000021ac <__deregister_frame_info_bases>:
    21ac:	3c1c0000 	lui	gp,0x0
    21b0:	279c0000 	addiu	gp,gp,0
    21b4:	0399e021 	addu	gp,gp,t9
    21b8:	27bdffd8 	addiu	sp,sp,-40
    21bc:	afbf0024 	sw	ra,36(sp)
    21c0:	afb20020 	sw	s2,32(sp)
    21c4:	afb1001c 	sw	s1,28(sp)
    21c8:	afb00018 	sw	s0,24(sp)
    21cc:	afbc0010 	sw	gp,16(sp)
    21d0:	14800008 	bnez	a0,21f4 <__deregister_frame_info_bases+0x48>
    21d4:	00808821 	move	s1,a0
    21d8:	00001021 	move	v0,zero
    21dc:	8fbf0024 	lw	ra,36(sp)
    21e0:	8fb20020 	lw	s2,32(sp)
    21e4:	8fb1001c 	lw	s1,28(sp)
    21e8:	8fb00018 	lw	s0,24(sp)
    21ec:	03e00008 	jr	ra
    21f0:	27bd0028 	addiu	sp,sp,40
    21f4:	8c820000 	lw	v0,0(a0)
    21f8:	1040fff7 	beqz	v0,21d8 <__deregister_frame_info_bases+0x2c>
    21fc:	8f920000 	lw	s2,0(gp)
    2200:	12400005 	beqz	s2,2218 <__deregister_frame_info_bases+0x6c>
    2204:	8f990000 	lw	t9,0(gp)
    2208:	8f840000 	lw	a0,0(gp)
    220c:	0320f809 	jalr	t9
    2210:	24840000 	addiu	a0,a0,0
    2214:	8fbc0010 	lw	gp,16(sp)
    2218:	8f830000 	lw	v1,0(gp)
    221c:	8c700028 	lw	s0,40(v1)
    2220:	1200000d 	beqz	s0,2258 <__deregister_frame_info_bases+0xac>
    2224:	8f820000 	lw	v0,0(gp)
    2228:	8e02000c 	lw	v0,12(s0)
    222c:	14510006 	bne	v0,s1,2248 <__deregister_frame_info_bases+0x9c>
    2230:	24630028 	addiu	v1,v1,40
    2234:	1000002a 	b	22e0 <__deregister_frame_info_bases+0x134>
    2238:	8e020014 	lw	v0,20(s0)
    223c:	8e02000c 	lw	v0,12(s0)
    2240:	10510026 	beq	v0,s1,22dc <__deregister_frame_info_bases+0x130>
    2244:	00000000 	nop
    2248:	26030014 	addiu	v1,s0,20
    224c:	8e100014 	lw	s0,20(s0)
    2250:	1600fffa 	bnez	s0,223c <__deregister_frame_info_bases+0x90>
    2254:	8f820000 	lw	v0,0(gp)
    2258:	8c50002c 	lw	s0,44(v0)
    225c:	12000014 	beqz	s0,22b0 <__deregister_frame_info_bases+0x104>
    2260:	2444002c 	addiu	a0,v0,44
    2264:	1000000a 	b	2290 <__deregister_frame_info_bases+0xe4>
    2268:	8e020010 	lw	v0,16(s0)
    226c:	8e02000c 	lw	v0,12(s0)
    2270:	8c430000 	lw	v1,0(v0)
    2274:	1071001e 	beq	v1,s1,22f0 <__deregister_frame_info_bases+0x144>
    2278:	8f990000 	lw	t9,0(gp)
    227c:	8e020014 	lw	v0,20(s0)
    2280:	10400019 	beqz	v0,22e8 <__deregister_frame_info_bases+0x13c>
    2284:	26040014 	addiu	a0,s0,20
    2288:	00408021 	move	s0,v0
    228c:	8e020010 	lw	v0,16(s0)
    2290:	30420001 	andi	v0,v0,0x1
    2294:	1440fff5 	bnez	v0,226c <__deregister_frame_info_bases+0xc0>
    2298:	00000000 	nop
    229c:	8e02000c 	lw	v0,12(s0)
    22a0:	1451fff6 	bne	v0,s1,227c <__deregister_frame_info_bases+0xd0>
    22a4:	00000000 	nop
    22a8:	8e020014 	lw	v0,20(s0)
    22ac:	ac820000 	sw	v0,0(a0)
    22b0:	12400005 	beqz	s2,22c8 <__deregister_frame_info_bases+0x11c>
    22b4:	8f990000 	lw	t9,0(gp)
    22b8:	8f840000 	lw	a0,0(gp)
    22bc:	0320f809 	jalr	t9
    22c0:	24840000 	addiu	a0,a0,0
    22c4:	8fbc0010 	lw	gp,16(sp)
    22c8:	1600ffc4 	bnez	s0,21dc <__deregister_frame_info_bases+0x30>
    22cc:	02001021 	move	v0,s0
    22d0:	8f990000 	lw	t9,0(gp)
    22d4:	0320f809 	jalr	t9
    22d8:	00000000 	nop
    22dc:	8e020014 	lw	v0,20(s0)
    22e0:	1000fff3 	b	22b0 <__deregister_frame_info_bases+0x104>
    22e4:	ac620000 	sw	v0,0(v1)
    22e8:	1000fff1 	b	22b0 <__deregister_frame_info_bases+0x104>
    22ec:	00008021 	move	s0,zero
    22f0:	8e020014 	lw	v0,20(s0)
    22f4:	ac820000 	sw	v0,0(a0)
    22f8:	0320f809 	jalr	t9
    22fc:	8e04000c 	lw	a0,12(s0)
    2300:	1000ffeb 	b	22b0 <__deregister_frame_info_bases+0x104>
    2304:	8fbc0010 	lw	gp,16(sp)

00002308 <__deregister_frame_info>:
    2308:	3c1c0000 	lui	gp,0x0
    230c:	279c0000 	addiu	gp,gp,0
    2310:	0399e021 	addu	gp,gp,t9
    2314:	8f990000 	lw	t9,0(gp)
    2318:	03200008 	jr	t9
    231c:	00000000 	nop

00002320 <__deregister_frame>:
    2320:	3c1c0000 	lui	gp,0x0
    2324:	279c0000 	addiu	gp,gp,0
    2328:	0399e021 	addu	gp,gp,t9
    232c:	27bdffe0 	addiu	sp,sp,-32
    2330:	afbf001c 	sw	ra,28(sp)
    2334:	afbc0010 	sw	gp,16(sp)
    2338:	8c820000 	lw	v0,0(a0)
    233c:	14400003 	bnez	v0,234c <__deregister_frame+0x2c>
    2340:	8fbf001c 	lw	ra,28(sp)
    2344:	03e00008 	jr	ra
    2348:	27bd0020 	addiu	sp,sp,32
    234c:	8f990000 	lw	t9,0(gp)
    2350:	0320f809 	jalr	t9
    2354:	00000000 	nop
    2358:	8fbc0010 	lw	gp,16(sp)
    235c:	8fbf001c 	lw	ra,28(sp)
    2360:	00402021 	move	a0,v0
    2364:	8f990000 	lw	t9,0(gp)
    2368:	03200008 	jr	t9
    236c:	27bd0020 	addiu	sp,sp,32

unwind-sjlj.o:     file format elf32-tradlittlemips


gthr-gnat.o:     file format elf32-tradlittlemips

Disassembly of section .text:

00000000 <__gnat_default_lock>:
   0:	03e00008 	jr	ra
   4:	00000000 	nop

00000008 <__gnat_default_unlock>:
   8:	03e00008 	jr	ra
   c:	00000000 	nop

00000010 <__gnat_install_locks>:
  10:	3c1c0000 	lui	gp,0x0
  14:	279c0000 	addiu	gp,gp,0
  18:	0399e021 	addu	gp,gp,t9
  1c:	8f820000 	lw	v0,0(gp)
  20:	8f830000 	lw	v1,0(gp)
  24:	ac440004 	sw	a0,4(v0)
  28:	03e00008 	jr	ra
  2c:	ac650000 	sw	a1,0(v1)

00000030 <__gthread_active_p>:
  30:	03e00008 	jr	ra
  34:	00001021 	move	v0,zero

00000038 <__gthread_mutex_lock>:
  38:	3c1c0000 	lui	gp,0x0
  3c:	279c0000 	addiu	gp,gp,0
  40:	0399e021 	addu	gp,gp,t9
  44:	27bdffe0 	addiu	sp,sp,-32
  48:	afbf001c 	sw	ra,28(sp)
  4c:	afbc0010 	sw	gp,16(sp)
  50:	8f820000 	lw	v0,0(gp)
  54:	8c590004 	lw	t9,4(v0)
  58:	0320f809 	jalr	t9
  5c:	00000000 	nop
  60:	8fbf001c 	lw	ra,28(sp)
  64:	8fbc0010 	lw	gp,16(sp)
  68:	00001021 	move	v0,zero
  6c:	03e00008 	jr	ra
  70:	27bd0020 	addiu	sp,sp,32

00000074 <__gthread_mutex_unlock>:
  74:	3c1c0000 	lui	gp,0x0
  78:	279c0000 	addiu	gp,gp,0
  7c:	0399e021 	addu	gp,gp,t9
  80:	27bdffe0 	addiu	sp,sp,-32
  84:	afbf001c 	sw	ra,28(sp)
  88:	afbc0010 	sw	gp,16(sp)
  8c:	8f820000 	lw	v0,0(gp)
  90:	8c590000 	lw	t9,0(v0)
  94:	0320f809 	jalr	t9
  98:	00000000 	nop
  9c:	8fbf001c 	lw	ra,28(sp)
  a0:	8fbc0010 	lw	gp,16(sp)
  a4:	00001021 	move	v0,zero
  a8:	03e00008 	jr	ra
  ac:	27bd0020 	addiu	sp,sp,32

unwind-c.o:     file format elf32-tradlittlemips

Disassembly of section .text:

00000000 <__gcc_personality_v0>:
   0:	3c1c0000 	lui	gp,0x0
   4:	279c0000 	addiu	gp,gp,0
   8:	0399e021 	addu	gp,gp,t9
   c:	27bdffa0 	addiu	sp,sp,-96
  10:	afbf005c 	sw	ra,92(sp)
  14:	afbe0058 	sw	s8,88(sp)
  18:	afb70054 	sw	s7,84(sp)
  1c:	afb60050 	sw	s6,80(sp)
  20:	afb5004c 	sw	s5,76(sp)
  24:	afb40048 	sw	s4,72(sp)
  28:	afb30044 	sw	s3,68(sp)
  2c:	afb20040 	sw	s2,64(sp)
  30:	afb1003c 	sw	s1,60(sp)
  34:	afb00038 	sw	s0,56(sp)
  38:	afbc0010 	sw	gp,16(sp)
  3c:	24020001 	li	v0,1
  40:	1082000e 	beq	a0,v0,7c <__gcc_personality_v0+0x7c>
  44:	24030003 	li	v1,3
  48:	8fbf005c 	lw	ra,92(sp)
  4c:	00601021 	move	v0,v1
  50:	8fbe0058 	lw	s8,88(sp)
  54:	8fb70054 	lw	s7,84(sp)
  58:	8fb60050 	lw	s6,80(sp)
  5c:	8fb5004c 	lw	s5,76(sp)
  60:	8fb40048 	lw	s4,72(sp)
  64:	8fb30044 	lw	s3,68(sp)
  68:	8fb20040 	lw	s2,64(sp)
  6c:	8fb1003c 	lw	s1,60(sp)
  70:	8fb00038 	lw	s0,56(sp)
  74:	03e00008 	jr	ra
  78:	27bd0060 	addiu	sp,sp,96
  7c:	30a20002 	andi	v0,a1,0x2
  80:	1440000f 	bnez	v0,c0 <__gcc_personality_v0+0xc0>
  84:	8f990000 	lw	t9,0(gp)
  88:	24030008 	li	v1,8
  8c:	8fbf005c 	lw	ra,92(sp)
  90:	00601021 	move	v0,v1
  94:	8fbe0058 	lw	s8,88(sp)
  98:	8fb70054 	lw	s7,84(sp)
  9c:	8fb60050 	lw	s6,80(sp)
  a0:	8fb5004c 	lw	s5,76(sp)
  a4:	8fb40048 	lw	s4,72(sp)
  a8:	8fb30044 	lw	s3,68(sp)
  ac:	8fb20040 	lw	s2,64(sp)
  b0:	8fb1003c 	lw	s1,60(sp)
  b4:	8fb00038 	lw	s0,56(sp)
  b8:	03e00008 	jr	ra
  bc:	27bd0060 	addiu	sp,sp,96
  c0:	8fa40074 	lw	a0,116(sp)
  c4:	0320f809 	jalr	t9
  c8:	afa00018 	sw	zero,24(sp)
  cc:	8fbc0010 	lw	gp,16(sp)
  d0:	1040ffed 	beqz	v0,88 <__gcc_personality_v0+0x88>
  d4:	00408821 	move	s1,v0
  d8:	8fa20074 	lw	v0,116(sp)
  dc:	10400006 	beqz	v0,f8 <__gcc_personality_v0+0xf8>
  e0:	afa00024 	sw	zero,36(sp)
  e4:	8f990000 	lw	t9,0(gp)
  e8:	0320f809 	jalr	t9
  ec:	8fa40074 	lw	a0,116(sp)
  f0:	8fbc0010 	lw	gp,16(sp)
  f4:	afa20024 	sw	v0,36(sp)
  f8:	92330000 	lbu	s3,0(s1)
  fc:	240200ff 	li	v0,255
 100:	26300001 	addiu	s0,s1,1
 104:	12620027 	beq	s3,v0,1a4 <__gcc_personality_v0+0x1a4>
 108:	8fb50024 	lw	s5,36(sp)
 10c:	32720070 	andi	s2,s3,0x70
 110:	24020020 	li	v0,32
 114:	124200a8 	beq	s2,v0,3b8 <__gcc_personality_v0+0x3b8>
 118:	2a420021 	slti	v0,s2,33
 11c:	104001d2 	beqz	v0,868 <__gcc_personality_v0+0x868>
 120:	24020040 	li	v0,64
 124:	124000a9 	beqz	s2,3cc <__gcc_personality_v0+0x3cc>
 128:	00003021 	move	a2,zero
 12c:	24020010 	li	v0,16
 130:	124200a7 	beq	s2,v0,3d0 <__gcc_personality_v0+0x3d0>
 134:	24020050 	li	v0,80
 138:	8f990000 	lw	t9,0(gp)
 13c:	0320f809 	jalr	t9
 140:	00000000 	nop
 144:	0000a821 	move	s5,zero
 148:	00002821 	move	a1,zero
 14c:	92040000 	lbu	a0,0(s0)
 150:	26100001 	addiu	s0,s0,1
 154:	3082007f 	andi	v0,a0,0x7f
 158:	00a21004 	sllv	v0,v0,a1
 15c:	7c041c20 	seb	v1,a0
 160:	02a2a825 	or	s5,s5,v0
 164:	0460fff9 	bltz	v1,14c <__gcc_personality_v0+0x14c>
 168:	24a50007 	addiu	a1,a1,7
 16c:	2ca20020 	sltiu	v0,a1,32
 170:	10400005 	beqz	v0,188 <__gcc_personality_v0+0x188>
 174:	30820040 	andi	v0,a0,0x40
 178:	10400003 	beqz	v0,188 <__gcc_personality_v0+0x188>
 17c:	2402ffff 	li	v0,-1
 180:	00a21004 	sllv	v0,v0,a1
 184:	0055a825 	or	s5,v0,s5
 188:	12a00006 	beqz	s5,1a4 <__gcc_personality_v0+0x1a4>
 18c:	3a420010 	xori	v0,s2,0x10
 190:	00e2300a 	movz	a2,a3,v0
 194:	7c131c20 	seb	v1,s3
 198:	04610002 	bgez	v1,1a4 <__gcc_personality_v0+0x1a4>
 19c:	02a6a821 	addu	s5,s5,a2
 1a0:	8eb50000 	lw	s5,0(s5)
 1a4:	92030000 	lbu	v1,0(s0)
 1a8:	240200ff 	li	v0,255
 1ac:	10620005 	beq	v1,v0,1c4 <__gcc_personality_v0+0x1c4>
 1b0:	26040001 	addiu	a0,s0,1
 1b4:	90820000 	lbu	v0,0(a0)
 1b8:	7c021420 	seb	v0,v0
 1bc:	0440fffd 	bltz	v0,1b4 <__gcc_personality_v0+0x1b4>
 1c0:	24840001 	addiu	a0,a0,1
 1c4:	90940000 	lbu	s4,0(a0)
 1c8:	24900001 	addiu	s0,a0,1
 1cc:	00003021 	move	a2,zero
 1d0:	00002021 	move	a0,zero
 1d4:	92030000 	lbu	v1,0(s0)
 1d8:	26100001 	addiu	s0,s0,1
 1dc:	3062007f 	andi	v0,v1,0x7f
 1e0:	00821004 	sllv	v0,v0,a0
 1e4:	7c031c20 	seb	v1,v1
 1e8:	00c23025 	or	a2,a2,v0
 1ec:	0460fff9 	bltz	v1,1d4 <__gcc_personality_v0+0x1d4>
 1f0:	24840007 	addiu	a0,a0,7
 1f4:	8f990000 	lw	t9,0(gp)
 1f8:	8fa40074 	lw	a0,116(sp)
 1fc:	02063021 	addu	a2,s0,a2
 200:	27a50018 	addiu	a1,sp,24
 204:	0320f809 	jalr	t9
 208:	afa60020 	sw	a2,32(sp)
 20c:	8fa30020 	lw	v1,32(sp)
 210:	8fbc0010 	lw	gp,16(sp)
 214:	0203202b 	sltu	a0,s0,v1
 218:	8fa30018 	lw	v1,24(sp)
 21c:	2c630001 	sltiu	v1,v1,1
 220:	00431823 	subu	v1,v0,v1
 224:	1080ff98 	beqz	a0,88 <__gcc_personality_v0+0x88>
 228:	afa30028 	sw	v1,40(sp)
 22c:	8f820000 	lw	v0,0(gp)
 230:	3296000f 	andi	s6,s4,0xf
 234:	00162080 	sll	a0,s6,0x2
 238:	24420000 	addiu	v0,v0,0
 23c:	32930070 	andi	s3,s4,0x70
 240:	00441021 	addu	v0,v0,a0
 244:	afa20030 	sw	v0,48(sp)
 248:	7c141c20 	seb	v1,s4
 24c:	2a620021 	slti	v0,s3,33
 250:	afa2002c 	sw	v0,44(sp)
 254:	2ed7000d 	sltiu	s7,s6,13
 258:	3a7e0010 	xori	s8,s3,0x10
 25c:	afa30034 	sw	v1,52(sp)
 260:	240200ff 	li	v0,255
 264:	1282002c 	beq	s4,v0,318 <__gcc_personality_v0+0x318>
 268:	24030020 	li	v1,32
 26c:	12630176 	beq	s3,v1,848 <__gcc_personality_v0+0x848>
 270:	8fa2002c 	lw	v0,44(sp)
 274:	14400031 	bnez	v0,33c <__gcc_personality_v0+0x33c>
 278:	24020040 	li	v0,64
 27c:	12620174 	beq	s3,v0,850 <__gcc_personality_v0+0x850>
 280:	24030050 	li	v1,80
 284:	12630032 	beq	s3,v1,350 <__gcc_personality_v0+0x350>
 288:	24020030 	li	v0,48
 28c:	1662ffab 	bne	s3,v0,13c <__gcc_personality_v0+0x13c>
 290:	8f990000 	lw	t9,0(gp)
 294:	8f990000 	lw	t9,0(gp)
 298:	0320f809 	jalr	t9
 29c:	00002021 	move	a0,zero
 2a0:	8fbc0010 	lw	gp,16(sp)
 2a4:	00403021 	move	a2,v0
 2a8:	24030050 	li	v1,80
 2ac:	1683001c 	bne	s4,v1,320 <__gcc_personality_v0+0x320>
 2b0:	02003821 	move	a3,s0
 2b4:	26020003 	addiu	v0,s0,3
 2b8:	2403fffc 	li	v1,-4
 2bc:	00431024 	and	v0,v0,v1
 2c0:	8c520000 	lw	s2,0(v0)
 2c4:	24500004 	addiu	s0,v0,4
 2c8:	24020020 	li	v0,32
 2cc:	12620162 	beq	s3,v0,858 <__gcc_personality_v0+0x858>
 2d0:	2a620021 	slti	v0,s3,33
 2d4:	10400142 	beqz	v0,7e0 <__gcc_personality_v0+0x7e0>
 2d8:	00000000 	nop
 2dc:	12600005 	beqz	s3,2f4 <__gcc_personality_v0+0x2f4>
 2e0:	00003021 	move	a2,zero
 2e4:	24030010 	li	v1,16
 2e8:	1663ff94 	bne	s3,v1,13c <__gcc_personality_v0+0x13c>
 2ec:	8f990000 	lw	t9,0(gp)
 2f0:	00003021 	move	a2,zero
 2f4:	24030050 	li	v1,80
 2f8:	16830025 	bne	s4,v1,390 <__gcc_personality_v0+0x390>
 2fc:	02003821 	move	a3,s0
 300:	26020003 	addiu	v0,s0,3
 304:	2403fffc 	li	v1,-4
 308:	00431024 	and	v0,v0,v1
 30c:	24500004 	addiu	s0,v0,4
 310:	10000048 	b	434 <__gcc_personality_v0+0x434>
 314:	8c510000 	lw	s1,0(v0)
 318:	02003821 	move	a3,s0
 31c:	00003021 	move	a2,zero
 320:	12e0ff86 	beqz	s7,13c <__gcc_personality_v0+0x13c>
 324:	8f990000 	lw	t9,0(gp)
 328:	8fa30030 	lw	v1,48(sp)
 32c:	8c620000 	lw	v0,0(v1)
 330:	005c1021 	addu	v0,v0,gp
 334:	00400008 	jr	v0
 338:	00000000 	nop
 33c:	1260ffda 	beqz	s3,2a8 <__gcc_personality_v0+0x2a8>
 340:	00003021 	move	a2,zero
 344:	24030010 	li	v1,16
 348:	1663ff7c 	bne	s3,v1,13c <__gcc_personality_v0+0x13c>
 34c:	8f990000 	lw	t9,0(gp)
 350:	1000ffd5 	b	2a8 <__gcc_personality_v0+0x2a8>
 354:	00003021 	move	a2,zero
 358:	8a120003 	lwl	s2,3(s0)
 35c:	9a120000 	lwr	s2,0(s0)
 360:	26100004 	addiu	s0,s0,4
 364:	12400005 	beqz	s2,37c <__gcc_personality_v0+0x37c>
 368:	8fa20034 	lw	v0,52(sp)
 36c:	00fe300a 	movz	a2,a3,s8
 370:	04410002 	bgez	v0,37c <__gcc_personality_v0+0x37c>
 374:	02469021 	addu	s2,s2,a2
 378:	8e520000 	lw	s2,0(s2)
 37c:	240300ff 	li	v1,255
 380:	1683ffd2 	bne	s4,v1,2cc <__gcc_personality_v0+0x2cc>
 384:	24020020 	li	v0,32
 388:	02003821 	move	a3,s0
 38c:	00003021 	move	a2,zero
 390:	12e0ff6a 	beqz	s7,13c <__gcc_personality_v0+0x13c>
 394:	8f990000 	lw	t9,0(gp)
 398:	8f830000 	lw	v1,0(gp)
 39c:	00161080 	sll	v0,s6,0x2
 3a0:	24630034 	addiu	v1,v1,52
 3a4:	00621021 	addu	v0,v1,v0
 3a8:	8c430000 	lw	v1,0(v0)
 3ac:	007c1821 	addu	v1,v1,gp
 3b0:	00600008 	jr	v1
 3b4:	00000000 	nop
 3b8:	8f990000 	lw	t9,0(gp)
 3bc:	0320f809 	jalr	t9
 3c0:	8fa40074 	lw	a0,116(sp)
 3c4:	8fbc0010 	lw	gp,16(sp)
 3c8:	00403021 	move	a2,v0
 3cc:	24020050 	li	v0,80
 3d0:	12620131 	beq	s3,v0,898 <__gcc_personality_v0+0x898>
 3d4:	3263000f 	andi	v1,s3,0xf
 3d8:	2c62000d 	sltiu	v0,v1,13
 3dc:	1040ff56 	beqz	v0,138 <__gcc_personality_v0+0x138>
 3e0:	02003821 	move	a3,s0
 3e4:	00031080 	sll	v0,v1,0x2
 3e8:	8f830000 	lw	v1,0(gp)
 3ec:	24630068 	addiu	v1,v1,104
 3f0:	00621821 	addu	v1,v1,v0
 3f4:	8c640000 	lw	a0,0(v1)
 3f8:	009c2021 	addu	a0,a0,gp
 3fc:	00800008 	jr	a0
 400:	00000000 	nop
 404:	8a110003 	lwl	s1,3(s0)
 408:	9a110000 	lwr	s1,0(s0)
 40c:	26100004 	addiu	s0,s0,4
 410:	12200005 	beqz	s1,428 <__gcc_personality_v0+0x428>
 414:	8fa20034 	lw	v0,52(sp)
 418:	00fe300a 	movz	a2,a3,s8
 41c:	04410002 	bgez	v0,428 <__gcc_personality_v0+0x428>
 420:	02268821 	addu	s1,s1,a2
 424:	8e310000 	lw	s1,0(s1)
 428:	240300ff 	li	v1,255
 42c:	128300ea 	beq	s4,v1,7d8 <__gcc_personality_v0+0x7d8>
 430:	02004021 	move	t0,s0
 434:	24020020 	li	v0,32
 438:	12620113 	beq	s3,v0,888 <__gcc_personality_v0+0x888>
 43c:	2a620021 	slti	v0,s3,33
 440:	104000f4 	beqz	v0,814 <__gcc_personality_v0+0x814>
 444:	00000000 	nop
 448:	12600005 	beqz	s3,460 <__gcc_personality_v0+0x460>
 44c:	00003821 	move	a3,zero
 450:	24030010 	li	v1,16
 454:	1663ff39 	bne	s3,v1,13c <__gcc_personality_v0+0x13c>
 458:	8f990000 	lw	t9,0(gp)
 45c:	00003821 	move	a3,zero
 460:	24030050 	li	v1,80
 464:	1283006d 	beq	s4,v1,61c <__gcc_personality_v0+0x61c>
 468:	02004021 	move	t0,s0
 46c:	12e0ff33 	beqz	s7,13c <__gcc_personality_v0+0x13c>
 470:	8f990000 	lw	t9,0(gp)
 474:	8f830000 	lw	v1,0(gp)
 478:	00161080 	sll	v0,s6,0x2
 47c:	2463009c 	addiu	v1,v1,156
 480:	00621021 	addu	v0,v1,v0
 484:	8c430000 	lw	v1,0(v0)
 488:	007c1821 	addu	v1,v1,gp
 48c:	00600008 	jr	v1
 490:	00000000 	nop
 494:	8a120003 	lwl	s2,3(s0)
 498:	9a120000 	lwr	s2,0(s0)
 49c:	1000ffb1 	b	364 <__gcc_personality_v0+0x364>
 4a0:	26100008 	addiu	s0,s0,8
 4a4:	8a110003 	lwl	s1,3(s0)
 4a8:	9a110000 	lwr	s1,0(s0)
 4ac:	1000ffd8 	b	410 <__gcc_personality_v0+0x410>
 4b0:	26100008 	addiu	s0,s0,8
 4b4:	92020001 	lbu	v0,1(s0)
 4b8:	92030000 	lbu	v1,0(s0)
 4bc:	26100002 	addiu	s0,s0,2
 4c0:	00021200 	sll	v0,v0,0x8
 4c4:	00431025 	or	v0,v0,v1
 4c8:	1000ffa6 	b	364 <__gcc_personality_v0+0x364>
 4cc:	7c029620 	seh	s2,v0
 4d0:	00009021 	move	s2,zero
 4d4:	00002821 	move	a1,zero
 4d8:	92040000 	lbu	a0,0(s0)
 4dc:	26100001 	addiu	s0,s0,1
 4e0:	3082007f 	andi	v0,a0,0x7f
 4e4:	00a21004 	sllv	v0,v0,a1
 4e8:	7c041c20 	seb	v1,a0
 4ec:	02429025 	or	s2,s2,v0
 4f0:	0460fff9 	bltz	v1,4d8 <__gcc_personality_v0+0x4d8>
 4f4:	24a50007 	addiu	a1,a1,7
 4f8:	2ca20020 	sltiu	v0,a1,32
 4fc:	1040ff99 	beqz	v0,364 <__gcc_personality_v0+0x364>
 500:	30820040 	andi	v0,a0,0x40
 504:	1040ff97 	beqz	v0,364 <__gcc_personality_v0+0x364>
 508:	2402ffff 	li	v0,-1
 50c:	00a21004 	sllv	v0,v0,a1
 510:	1000ff94 	b	364 <__gcc_personality_v0+0x364>
 514:	00529025 	or	s2,v0,s2
 518:	92020001 	lbu	v0,1(s0)
 51c:	92030000 	lbu	v1,0(s0)
 520:	26100002 	addiu	s0,s0,2
 524:	00021200 	sll	v0,v0,0x8
 528:	1000ff8e 	b	364 <__gcc_personality_v0+0x364>
 52c:	00439025 	or	s2,v0,v1
 530:	00009021 	move	s2,zero
 534:	00002021 	move	a0,zero
 538:	92030000 	lbu	v1,0(s0)
 53c:	26100001 	addiu	s0,s0,1
 540:	3062007f 	andi	v0,v1,0x7f
 544:	00821004 	sllv	v0,v0,a0
 548:	7c031c20 	seb	v1,v1
 54c:	02429025 	or	s2,s2,v0
 550:	0460fff9 	bltz	v1,538 <__gcc_personality_v0+0x538>
 554:	24840007 	addiu	a0,a0,7
 558:	1000ff82 	b	364 <__gcc_personality_v0+0x364>
 55c:	00000000 	nop
 560:	8a150003 	lwl	s5,3(s0)
 564:	9a150000 	lwr	s5,0(s0)
 568:	1000ff07 	b	188 <__gcc_personality_v0+0x188>
 56c:	26100004 	addiu	s0,s0,4
 570:	92020001 	lbu	v0,1(s0)
 574:	92030000 	lbu	v1,0(s0)
 578:	26100002 	addiu	s0,s0,2
 57c:	00021200 	sll	v0,v0,0x8
 580:	00431025 	or	v0,v0,v1
 584:	1000ffa2 	b	410 <__gcc_personality_v0+0x410>
 588:	7c028e20 	seh	s1,v0
 58c:	00008821 	move	s1,zero
 590:	00002821 	move	a1,zero
 594:	92040000 	lbu	a0,0(s0)
 598:	26100001 	addiu	s0,s0,1
 59c:	3082007f 	andi	v0,a0,0x7f
 5a0:	00a21004 	sllv	v0,v0,a1
 5a4:	7c041c20 	seb	v1,a0
 5a8:	02228825 	or	s1,s1,v0
 5ac:	0460fff9 	bltz	v1,594 <__gcc_personality_v0+0x594>
 5b0:	24a50007 	addiu	a1,a1,7
 5b4:	2ca20020 	sltiu	v0,a1,32
 5b8:	1040ff95 	beqz	v0,410 <__gcc_personality_v0+0x410>
 5bc:	30820040 	andi	v0,a0,0x40
 5c0:	1040ff93 	beqz	v0,410 <__gcc_personality_v0+0x410>
 5c4:	2402ffff 	li	v0,-1
 5c8:	00a21004 	sllv	v0,v0,a1
 5cc:	1000ff90 	b	410 <__gcc_personality_v0+0x410>
 5d0:	00518825 	or	s1,v0,s1
 5d4:	92020001 	lbu	v0,1(s0)
 5d8:	92030000 	lbu	v1,0(s0)
 5dc:	26100002 	addiu	s0,s0,2
 5e0:	00021200 	sll	v0,v0,0x8
 5e4:	1000ff8a 	b	410 <__gcc_personality_v0+0x410>
 5e8:	00438825 	or	s1,v0,v1
 5ec:	00008821 	move	s1,zero
 5f0:	00002021 	move	a0,zero
 5f4:	92030000 	lbu	v1,0(s0)
 5f8:	26100001 	addiu	s0,s0,1
 5fc:	3062007f 	andi	v0,v1,0x7f
 600:	00821004 	sllv	v0,v0,a0
 604:	7c031c20 	seb	v1,v1
 608:	02228825 	or	s1,s1,v0
 60c:	0460fff9 	bltz	v1,5f4 <__gcc_personality_v0+0x5f4>
 610:	24840007 	addiu	a0,a0,7
 614:	1000ff7e 	b	410 <__gcc_personality_v0+0x410>
 618:	00000000 	nop
 61c:	26020003 	addiu	v0,s0,3
 620:	2403fffc 	li	v1,-4
 624:	00431024 	and	v0,v0,v1
 628:	8c450000 	lw	a1,0(v0)
 62c:	24500004 	addiu	s0,v0,4
 630:	92020000 	lbu	v0,0(s0)
 634:	7c021420 	seb	v0,v0
 638:	0440fffd 	bltz	v0,630 <__gcc_personality_v0+0x630>
 63c:	26100001 	addiu	s0,s0,1
 640:	8fa30024 	lw	v1,36(sp)
 644:	02432021 	addu	a0,s2,v1
 648:	8fa30028 	lw	v1,40(sp)
 64c:	0064102b 	sltu	v0,v1,a0
 650:	1440fe8d 	bnez	v0,88 <__gcc_personality_v0+0x88>
 654:	00911021 	addu	v0,a0,s1
 658:	0062102b 	sltu	v0,v1,v0
 65c:	14400096 	bnez	v0,8b8 <__gcc_personality_v0+0x8b8>
 660:	8fa30020 	lw	v1,32(sp)
 664:	0203102b 	sltu	v0,s0,v1
 668:	1440fefe 	bnez	v0,264 <__gcc_personality_v0+0x264>
 66c:	240200ff 	li	v0,255
 670:	1000fe86 	b	8c <__gcc_personality_v0+0x8c>
 674:	24030008 	li	v1,8
 678:	8a050003 	lwl	a1,3(s0)
 67c:	9a050000 	lwr	a1,0(s0)
 680:	26100004 	addiu	s0,s0,4
 684:	10a0ffea 	beqz	a1,630 <__gcc_personality_v0+0x630>
 688:	8fa20034 	lw	v0,52(sp)
 68c:	011e380a 	movz	a3,t0,s8
 690:	0441ffe7 	bgez	v0,630 <__gcc_personality_v0+0x630>
 694:	00a72821 	addu	a1,a1,a3
 698:	1000ffe5 	b	630 <__gcc_personality_v0+0x630>
 69c:	8ca50000 	lw	a1,0(a1)
 6a0:	8a050003 	lwl	a1,3(s0)
 6a4:	9a050000 	lwr	a1,0(s0)
 6a8:	1000fff6 	b	684 <__gcc_personality_v0+0x684>
 6ac:	26100008 	addiu	s0,s0,8
 6b0:	92020001 	lbu	v0,1(s0)
 6b4:	92030000 	lbu	v1,0(s0)
 6b8:	26100002 	addiu	s0,s0,2
 6bc:	00021200 	sll	v0,v0,0x8
 6c0:	1000fff0 	b	684 <__gcc_personality_v0+0x684>
 6c4:	00432825 	or	a1,v0,v1
 6c8:	00002821 	move	a1,zero
 6cc:	00003021 	move	a2,zero
 6d0:	92030000 	lbu	v1,0(s0)
 6d4:	26100001 	addiu	s0,s0,1
 6d8:	3062007f 	andi	v0,v1,0x7f
 6dc:	00c21004 	sllv	v0,v0,a2
 6e0:	7c031c20 	seb	v1,v1
 6e4:	00a22825 	or	a1,a1,v0
 6e8:	0460fff9 	bltz	v1,6d0 <__gcc_personality_v0+0x6d0>
 6ec:	24c60007 	addiu	a2,a2,7
 6f0:	1000ffe4 	b	684 <__gcc_personality_v0+0x684>
 6f4:	00000000 	nop
 6f8:	92020001 	lbu	v0,1(s0)
 6fc:	92030000 	lbu	v1,0(s0)
 700:	26100002 	addiu	s0,s0,2
 704:	00021200 	sll	v0,v0,0x8
 708:	00431025 	or	v0,v0,v1
 70c:	1000ffdd 	b	684 <__gcc_personality_v0+0x684>
 710:	7c022e20 	seh	a1,v0
 714:	00002821 	move	a1,zero
 718:	00003021 	move	a2,zero
 71c:	92040000 	lbu	a0,0(s0)
 720:	26100001 	addiu	s0,s0,1
 724:	3082007f 	andi	v0,a0,0x7f
 728:	00c21004 	sllv	v0,v0,a2
 72c:	7c041c20 	seb	v1,a0
 730:	00a22825 	or	a1,a1,v0
 734:	0460fff9 	bltz	v1,71c <__gcc_personality_v0+0x71c>
 738:	24c60007 	addiu	a2,a2,7
 73c:	2cc20020 	sltiu	v0,a2,32
 740:	1040ffd0 	beqz	v0,684 <__gcc_personality_v0+0x684>
 744:	30820040 	andi	v0,a0,0x40
 748:	1040ffce 	beqz	v0,684 <__gcc_personality_v0+0x684>
 74c:	2402ffff 	li	v0,-1
 750:	00c21004 	sllv	v0,v0,a2
 754:	1000ffcb 	b	684 <__gcc_personality_v0+0x684>
 758:	00452825 	or	a1,v0,a1
 75c:	8a150003 	lwl	s5,3(s0)
 760:	9a150000 	lwr	s5,0(s0)
 764:	1000fe88 	b	188 <__gcc_personality_v0+0x188>
 768:	26100008 	addiu	s0,s0,8
 76c:	1000ff17 	b	3cc <__gcc_personality_v0+0x3cc>
 770:	00003021 	move	a2,zero
 774:	0000a821 	move	s5,zero
 778:	00002021 	move	a0,zero
 77c:	92030000 	lbu	v1,0(s0)
 780:	26100001 	addiu	s0,s0,1
 784:	3062007f 	andi	v0,v1,0x7f
 788:	00821004 	sllv	v0,v0,a0
 78c:	7c031c20 	seb	v1,v1
 790:	02a2a825 	or	s5,s5,v0
 794:	0460fff9 	bltz	v1,77c <__gcc_personality_v0+0x77c>
 798:	24840007 	addiu	a0,a0,7
 79c:	1000fe7a 	b	188 <__gcc_personality_v0+0x188>
 7a0:	00000000 	nop
 7a4:	92020001 	lbu	v0,1(s0)
 7a8:	92230001 	lbu	v1,1(s1)
 7ac:	26100002 	addiu	s0,s0,2
 7b0:	00021200 	sll	v0,v0,0x8
 7b4:	1000fe74 	b	188 <__gcc_personality_v0+0x188>
 7b8:	0043a825 	or	s5,v0,v1
 7bc:	92020001 	lbu	v0,1(s0)
 7c0:	92230001 	lbu	v1,1(s1)
 7c4:	26100002 	addiu	s0,s0,2
 7c8:	00021200 	sll	v0,v0,0x8
 7cc:	00431025 	or	v0,v0,v1
 7d0:	1000fe6d 	b	188 <__gcc_personality_v0+0x188>
 7d4:	7c02ae20 	seh	s5,v0
 7d8:	1000ff24 	b	46c <__gcc_personality_v0+0x46c>
 7dc:	00003821 	move	a3,zero
 7e0:	24020040 	li	v0,64
 7e4:	1262001e 	beq	s3,v0,860 <__gcc_personality_v0+0x860>
 7e8:	24030050 	li	v1,80
 7ec:	1263fec0 	beq	s3,v1,2f0 <__gcc_personality_v0+0x2f0>
 7f0:	24020030 	li	v0,48
 7f4:	1662fe51 	bne	s3,v0,13c <__gcc_personality_v0+0x13c>
 7f8:	8f990000 	lw	t9,0(gp)
 7fc:	8f990000 	lw	t9,0(gp)
 800:	0320f809 	jalr	t9
 804:	00002021 	move	a0,zero
 808:	8fbc0010 	lw	gp,16(sp)
 80c:	1000feb9 	b	2f4 <__gcc_personality_v0+0x2f4>
 810:	00403021 	move	a2,v0
 814:	24020040 	li	v0,64
 818:	1262001d 	beq	s3,v0,890 <__gcc_personality_v0+0x890>
 81c:	24030050 	li	v1,80
 820:	1263ff0e 	beq	s3,v1,45c <__gcc_personality_v0+0x45c>
 824:	24020030 	li	v0,48
 828:	1662fe44 	bne	s3,v0,13c <__gcc_personality_v0+0x13c>
 82c:	8f990000 	lw	t9,0(gp)
 830:	8f990000 	lw	t9,0(gp)
 834:	0320f809 	jalr	t9
 838:	00002021 	move	a0,zero
 83c:	8fbc0010 	lw	gp,16(sp)
 840:	1000ff07 	b	460 <__gcc_personality_v0+0x460>
 844:	00403821 	move	a3,v0
 848:	1000fe93 	b	298 <__gcc_personality_v0+0x298>
 84c:	8f990000 	lw	t9,0(gp)
 850:	1000fe91 	b	298 <__gcc_personality_v0+0x298>
 854:	8f990000 	lw	t9,0(gp)
 858:	1000ffe9 	b	800 <__gcc_personality_v0+0x800>
 85c:	8f990000 	lw	t9,0(gp)
 860:	1000ffe7 	b	800 <__gcc_personality_v0+0x800>
 864:	8f990000 	lw	t9,0(gp)
 868:	12420011 	beq	s2,v0,8b0 <__gcc_personality_v0+0x8b0>
 86c:	24020050 	li	v0,80
 870:	1242ffbe 	beq	s2,v0,76c <__gcc_personality_v0+0x76c>
 874:	24020030 	li	v0,48
 878:	1642fe2f 	bne	s2,v0,138 <__gcc_personality_v0+0x138>
 87c:	8f990000 	lw	t9,0(gp)
 880:	1000fece 	b	3bc <__gcc_personality_v0+0x3bc>
 884:	00000000 	nop
 888:	1000ffea 	b	834 <__gcc_personality_v0+0x834>
 88c:	8f990000 	lw	t9,0(gp)
 890:	1000ffe8 	b	834 <__gcc_personality_v0+0x834>
 894:	8f990000 	lw	t9,0(gp)
 898:	26020003 	addiu	v0,s0,3
 89c:	2403fffc 	li	v1,-4
 8a0:	00431024 	and	v0,v0,v1
 8a4:	24500004 	addiu	s0,v0,4
 8a8:	1000fe3e 	b	1a4 <__gcc_personality_v0+0x1a4>
 8ac:	8c550000 	lw	s5,0(v0)
 8b0:	1000fec2 	b	3bc <__gcc_personality_v0+0x3bc>
 8b4:	8f990000 	lw	t9,0(gp)
 8b8:	10a0fdf4 	beqz	a1,8c <__gcc_personality_v0+0x8c>
 8bc:	24030008 	li	v1,8
 8c0:	00b58021 	addu	s0,a1,s5
 8c4:	1200fdf2 	beqz	s0,90 <__gcc_personality_v0+0x90>
 8c8:	8fbf005c 	lw	ra,92(sp)
 8cc:	8f990000 	lw	t9,0(gp)
 8d0:	8fa60070 	lw	a2,112(sp)
 8d4:	8fa40074 	lw	a0,116(sp)
 8d8:	0320f809 	jalr	t9
 8dc:	24050004 	li	a1,4
 8e0:	8fbc0010 	lw	gp,16(sp)
 8e4:	8fa40074 	lw	a0,116(sp)
 8e8:	24050005 	li	a1,5
 8ec:	8f990000 	lw	t9,0(gp)
 8f0:	0320f809 	jalr	t9
 8f4:	00003021 	move	a2,zero
 8f8:	8fbc0010 	lw	gp,16(sp)
 8fc:	8fa40074 	lw	a0,116(sp)
 900:	8f990000 	lw	t9,0(gp)
 904:	0320f809 	jalr	t9
 908:	02002821 	move	a1,s0
 90c:	8fbc0010 	lw	gp,16(sp)
 910:	1000fdcd 	b	48 <__gcc_personality_v0+0x48>
 914:	24030007 	li	v1,7
	...

emutls.o:     file format elf32-tradlittlemips

Disassembly of section .text:

00000000 <__emutls_register_common>:
   0:	8c820000 	lw	v0,0(a0)
   4:	0045102b 	sltu	v0,v0,a1
   8:	10400003 	beqz	v0,18 <__emutls_register_common+0x18>
   c:	00000000 	nop
  10:	ac850000 	sw	a1,0(a0)
  14:	ac80000c 	sw	zero,12(a0)
  18:	8c820004 	lw	v0,4(a0)
  1c:	0046102b 	sltu	v0,v0,a2
  20:	10400002 	beqz	v0,2c <__emutls_register_common+0x2c>
  24:	00000000 	nop
  28:	ac860004 	sw	a2,4(a0)
  2c:	10e00004 	beqz	a3,40 <__emutls_register_common+0x40>
  30:	00000000 	nop
  34:	8c820000 	lw	v0,0(a0)
  38:	10450003 	beq	v0,a1,48 <__emutls_register_common+0x48>
  3c:	00000000 	nop
  40:	03e00008 	jr	ra
  44:	00000000 	nop
  48:	03e00008 	jr	ra
  4c:	ac87000c 	sw	a3,12(a0)

00000050 <emutls_init>:
  50:	3c1c0000 	lui	gp,0x0
  54:	279c0000 	addiu	gp,gp,0
  58:	0399e021 	addu	gp,gp,t9
  5c:	27bdffe0 	addiu	sp,sp,-32
  60:	afbf001c 	sw	ra,28(sp)
  64:	afbc0010 	sw	gp,16(sp)
  68:	8f840000 	lw	a0,0(gp)
  6c:	8f850000 	lw	a1,0(gp)
  70:	8f990000 	lw	t9,0(gp)
  74:	2484001c 	addiu	a0,a0,28
  78:	0320f809 	jalr	t9
  7c:	24a5039c 	addiu	a1,a1,924
  80:	14400004 	bnez	v0,94 <emutls_init+0x44>
  84:	8fbc0010 	lw	gp,16(sp)
  88:	8fbf001c 	lw	ra,28(sp)
  8c:	03e00008 	jr	ra
  90:	27bd0020 	addiu	sp,sp,32
  94:	8f990000 	lw	t9,0(gp)
  98:	0320f809 	jalr	t9
  9c:	00000000 	nop

000000a0 <emutls_alloc>:
  a0:	3c1c0000 	lui	gp,0x0
  a4:	279c0000 	addiu	gp,gp,0
  a8:	0399e021 	addu	gp,gp,t9
  ac:	27bdffd8 	addiu	sp,sp,-40
  b0:	afbf0024 	sw	ra,36(sp)
  b4:	afb10020 	sw	s1,32(sp)
  b8:	afb0001c 	sw	s0,28(sp)
  bc:	afbc0010 	sw	gp,16(sp)
  c0:	8c830004 	lw	v1,4(a0)
  c4:	2c620005 	sltiu	v0,v1,5
  c8:	10400017 	beqz	v0,128 <emutls_alloc+0x88>
  cc:	00808821 	move	s1,a0
  d0:	8c840000 	lw	a0,0(a0)
  d4:	8f990000 	lw	t9,0(gp)
  d8:	0320f809 	jalr	t9
  dc:	24840004 	addiu	a0,a0,4
  e0:	1040002d 	beqz	v0,198 <emutls_alloc+0xf8>
  e4:	8fbc0010 	lw	gp,16(sp)
  e8:	ac420000 	sw	v0,0(v0)
  ec:	8e25000c 	lw	a1,12(s1)
  f0:	14a0001e 	bnez	a1,16c <emutls_alloc+0xcc>
  f4:	24500004 	addiu	s0,v0,4
  f8:	8f990000 	lw	t9,0(gp)
  fc:	8e260000 	lw	a2,0(s1)
 100:	02002021 	move	a0,s0
 104:	0320f809 	jalr	t9
 108:	00002821 	move	a1,zero
 10c:	8fbf0024 	lw	ra,36(sp)
 110:	02001021 	move	v0,s0
 114:	8fbc0010 	lw	gp,16(sp)
 118:	8fb10020 	lw	s1,32(sp)
 11c:	8fb0001c 	lw	s0,28(sp)
 120:	03e00008 	jr	ra
 124:	27bd0028 	addiu	sp,sp,40
 128:	8c840000 	lw	a0,0(a0)
 12c:	8f990000 	lw	t9,0(gp)
 130:	00642021 	addu	a0,v1,a0
 134:	0320f809 	jalr	t9
 138:	24840003 	addiu	a0,a0,3
 13c:	8fbc0010 	lw	gp,16(sp)
 140:	10400015 	beqz	v0,198 <emutls_alloc+0xf8>
 144:	00402821 	move	a1,v0
 148:	8e230004 	lw	v1,4(s1)
 14c:	24620003 	addiu	v0,v1,3
 150:	00a21021 	addu	v0,a1,v0
 154:	00031823 	negu	v1,v1
 158:	00438024 	and	s0,v0,v1
 15c:	ae05fffc 	sw	a1,-4(s0)
 160:	8e25000c 	lw	a1,12(s1)
 164:	10a0ffe5 	beqz	a1,fc <emutls_alloc+0x5c>
 168:	8f990000 	lw	t9,0(gp)
 16c:	8f990000 	lw	t9,0(gp)
 170:	8e260000 	lw	a2,0(s1)
 174:	0320f809 	jalr	t9
 178:	02002021 	move	a0,s0
 17c:	8fbf0024 	lw	ra,36(sp)
 180:	02001021 	move	v0,s0
 184:	8fbc0010 	lw	gp,16(sp)
 188:	8fb10020 	lw	s1,32(sp)
 18c:	8fb0001c 	lw	s0,28(sp)
 190:	03e00008 	jr	ra
 194:	27bd0028 	addiu	sp,sp,40
 198:	8f990000 	lw	t9,0(gp)
 19c:	0320f809 	jalr	t9
 1a0:	00000000 	nop

000001a4 <__emutls_get_address>:
 1a4:	3c1c0000 	lui	gp,0x0
 1a8:	279c0000 	addiu	gp,gp,0
 1ac:	0399e021 	addu	gp,gp,t9
 1b0:	27bdffc8 	addiu	sp,sp,-56
 1b4:	afbf0034 	sw	ra,52(sp)
 1b8:	afb50030 	sw	s5,48(sp)
 1bc:	afb4002c 	sw	s4,44(sp)
 1c0:	afb30028 	sw	s3,40(sp)
 1c4:	afb20024 	sw	s2,36(sp)
 1c8:	afb10020 	sw	s1,32(sp)
 1cc:	afb0001c 	sw	s0,28(sp)
 1d0:	afbc0010 	sw	gp,16(sp)
 1d4:	8f820000 	lw	v0,0(gp)
 1d8:	1440000d 	bnez	v0,210 <__emutls_get_address+0x6c>
 1dc:	00808821 	move	s1,a0
 1e0:	8c820008 	lw	v0,8(a0)
 1e4:	10400025 	beqz	v0,27c <__emutls_get_address+0xd8>
 1e8:	8f990000 	lw	t9,0(gp)
 1ec:	8fbf0034 	lw	ra,52(sp)
 1f0:	8fb50030 	lw	s5,48(sp)
 1f4:	8fb4002c 	lw	s4,44(sp)
 1f8:	8fb30028 	lw	s3,40(sp)
 1fc:	8fb20024 	lw	s2,36(sp)
 200:	8fb10020 	lw	s1,32(sp)
 204:	8fb0001c 	lw	s0,28(sp)
 208:	03e00008 	jr	ra
 20c:	27bd0038 	addiu	sp,sp,56
 210:	8c930008 	lw	s3,8(a0)
 214:	12600049 	beqz	s3,33c <__emutls_get_address+0x198>
 218:	8f840000 	lw	a0,0(gp)
 21c:	8f950000 	lw	s5,0(gp)
 220:	8f990000 	lw	t9,0(gp)
 224:	0320f809 	jalr	t9
 228:	8ea4001c 	lw	a0,28(s5)
 22c:	8fbc0010 	lw	gp,16(sp)
 230:	10400033 	beqz	v0,300 <__emutls_get_address+0x15c>
 234:	00408021 	move	s0,v0
 238:	8c520000 	lw	s2,0(v0)
 23c:	0272102b 	sltu	v0,s3,s2
 240:	10400014 	beqz	v0,294 <__emutls_get_address+0xf0>
 244:	0012a040 	sll	s4,s2,0x1
 248:	2662ffff 	addiu	v0,s3,-1
 24c:	00021080 	sll	v0,v0,0x2
 250:	02028021 	addu	s0,s0,v0
 254:	8e020004 	lw	v0,4(s0)
 258:	1440ffe5 	bnez	v0,1f0 <__emutls_get_address+0x4c>
 25c:	8fbf0034 	lw	ra,52(sp)
 260:	8f990000 	lw	t9,0(gp)
 264:	273900a0 	addiu	t9,t9,160
 268:	0320f809 	jalr	t9
 26c:	02202021 	move	a0,s1
 270:	8fbc0010 	lw	gp,16(sp)
 274:	1000ffdd 	b	1ec <__emutls_get_address+0x48>
 278:	ae020004 	sw	v0,4(s0)
 27c:	273900a0 	addiu	t9,t9,160
 280:	0320f809 	jalr	t9
 284:	00000000 	nop
 288:	8fbc0010 	lw	gp,16(sp)
 28c:	1000ffd7 	b	1ec <__emutls_get_address+0x48>
 290:	ae220008 	sw	v0,8(s1)
 294:	8f990000 	lw	t9,0(gp)
 298:	0274182b 	sltu	v1,s3,s4
 29c:	26620020 	addiu	v0,s3,32
 2a0:	0043a00a 	movz	s4,v0,v1
 2a4:	02002021 	move	a0,s0
 2a8:	0320f809 	jalr	t9
 2ac:	00142880 	sll	a1,s4,0x2
 2b0:	8fbc0010 	lw	gp,16(sp)
 2b4:	10400036 	beqz	v0,390 <__emutls_get_address+0x1ec>
 2b8:	00408021 	move	s0,v0
 2bc:	8f990000 	lw	t9,0(gp)
 2c0:	2642ffff 	addiu	v0,s2,-1
 2c4:	00021080 	sll	v0,v0,0x2
 2c8:	02923023 	subu	a2,s4,s2
 2cc:	26040004 	addiu	a0,s0,4
 2d0:	00822021 	addu	a0,a0,v0
 2d4:	00063080 	sll	a2,a2,0x2
 2d8:	00002821 	move	a1,zero
 2dc:	0320f809 	jalr	t9
 2e0:	ae140000 	sw	s4,0(s0)
 2e4:	8fbc0010 	lw	gp,16(sp)
 2e8:	8ea4001c 	lw	a0,28(s5)
 2ec:	8f990000 	lw	t9,0(gp)
 2f0:	0320f809 	jalr	t9
 2f4:	02002821 	move	a1,s0
 2f8:	1000ffd3 	b	248 <__emutls_get_address+0xa4>
 2fc:	8fbc0010 	lw	gp,16(sp)
 300:	8f990000 	lw	t9,0(gp)
 304:	26720020 	addiu	s2,s3,32
 308:	02402021 	move	a0,s2
 30c:	0320f809 	jalr	t9
 310:	24050004 	li	a1,4
 314:	8fbc0010 	lw	gp,16(sp)
 318:	1040001d 	beqz	v0,390 <__emutls_get_address+0x1ec>
 31c:	00408021 	move	s0,v0
 320:	8f990000 	lw	t9,0(gp)
 324:	8ea4001c 	lw	a0,28(s5)
 328:	00402821 	move	a1,v0
 32c:	0320f809 	jalr	t9
 330:	ac520000 	sw	s2,0(v0)
 334:	1000ffc4 	b	248 <__emutls_get_address+0xa4>
 338:	8fbc0010 	lw	gp,16(sp)
 33c:	8f850000 	lw	a1,0(gp)
 340:	8f990000 	lw	t9,0(gp)
 344:	24840018 	addiu	a0,a0,24
 348:	8f900000 	lw	s0,0(gp)
 34c:	0320f809 	jalr	t9
 350:	24a50050 	addiu	a1,a1,80
 354:	8fbc0010 	lw	gp,16(sp)
 358:	8f990000 	lw	t9,0(gp)
 35c:	0320f809 	jalr	t9
 360:	26040000 	addiu	a0,s0,0
 364:	8fbc0010 	lw	gp,16(sp)
 368:	26040000 	addiu	a0,s0,0
 36c:	8f830000 	lw	v1,0(gp)
 370:	8f990000 	lw	t9,0(gp)
 374:	8c620020 	lw	v0,32(v1)
 378:	24530001 	addiu	s3,v0,1
 37c:	ac730020 	sw	s3,32(v1)
 380:	0320f809 	jalr	t9
 384:	ae330008 	sw	s3,8(s1)
 388:	1000ffa4 	b	21c <__emutls_get_address+0x78>
 38c:	8fbc0010 	lw	gp,16(sp)
 390:	8f990000 	lw	t9,0(gp)
 394:	0320f809 	jalr	t9
 398:	00000000 	nop

0000039c <emutls_destroy>:
 39c:	3c1c0000 	lui	gp,0x0
 3a0:	279c0000 	addiu	gp,gp,0
 3a4:	0399e021 	addu	gp,gp,t9
 3a8:	27bdffd0 	addiu	sp,sp,-48
 3ac:	afbf002c 	sw	ra,44(sp)
 3b0:	afb30028 	sw	s3,40(sp)
 3b4:	afb20024 	sw	s2,36(sp)
 3b8:	afb10020 	sw	s1,32(sp)
 3bc:	afb0001c 	sw	s0,28(sp)
 3c0:	afbc0010 	sw	gp,16(sp)
 3c4:	8c920000 	lw	s2,0(a0)
 3c8:	1240000e 	beqz	s2,404 <emutls_destroy+0x68>
 3cc:	00809821 	move	s3,a0
 3d0:	24910004 	addiu	s1,a0,4
 3d4:	00008021 	move	s0,zero
 3d8:	8e220000 	lw	v0,0(s1)
 3dc:	26100001 	addiu	s0,s0,1
 3e0:	8f990000 	lw	t9,0(gp)
 3e4:	10400004 	beqz	v0,3f8 <emutls_destroy+0x5c>
 3e8:	26310004 	addiu	s1,s1,4
 3ec:	0320f809 	jalr	t9
 3f0:	8c44fffc 	lw	a0,-4(v0)
 3f4:	8fbc0010 	lw	gp,16(sp)
 3f8:	0212102b 	sltu	v0,s0,s2
 3fc:	1440fff6 	bnez	v0,3d8 <emutls_destroy+0x3c>
 400:	00000000 	nop
 404:	8f990000 	lw	t9,0(gp)
 408:	02602021 	move	a0,s3
 40c:	8fbf002c 	lw	ra,44(sp)
 410:	8fb30028 	lw	s3,40(sp)
 414:	8fb20024 	lw	s2,36(sp)
 418:	8fb10020 	lw	s1,32(sp)
 41c:	8fb0001c 	lw	s0,28(sp)
 420:	03200008 	jr	t9
 424:	27bd0030 	addiu	sp,sp,48
	...
